	.file	"instrset_detect.cpp"
	.text
.Ltext0:
	.section	.gnu.lto_.jmpfuncs.5530f8220aa561e1,"",@progbits
	.string	"x\234cb`d`g\300\016$\2414\007\003P\021\023\0033\003\013\003\003+\220\317\006\304`="
	.string	"\007\320"
	.ascii	"H"
	.text
	.section	.gnu.lto_.inline.5530f8220aa561e1,"",@progbits
	.string	"x\234cb`d\340e\300\016\226Ai\016\006\006[nF\006\246\222C\355\214\fl\013\344\231\200z\330X\201\002l\037\364 |&4>3\032\237\205\201\207\023\310\347{\340\nU\317\r4\226\225\201S\f(\310\262@\036I\020L\260\341\224a\307)\303"
	.string	""
	.ascii	"\273\003\021\007"
	.text
	.section	.gnu.lto_.pureconst.5530f8220aa561e1,"",@progbits
	.string	"x\234cb`d`f``\020d\200"
	.string	"\016\006\tF\t&\tf\t\026\tV\t6\tv\t"
	.string	"\t\262"
	.ascii	"\374"
	.text
	.section	.gnu.lto__Z15instrset_detectv.part.0.5530f8220aa561e1,"",@progbits
	.ascii	"x\234\315X[l\033E\024\235\231\265\327\357g\332\264ib'\252\020"
	.ascii	" $\342\224\362\321\037\244~\360\301\017\022\255T>\020\246\304"
	.ascii	"\216[\"\3218r\234\252\364\247\213[\244TB\242* \002\315\003P\t"
	.ascii	"%}\322\007\245oZ\334\022\372B\030C\205\024AE\r\024d*\201\374"
	.ascii	"\323*R\270;\263\263\017{\023\274\346\247\033e\317\334;s\357\234"
	.ascii	"\271\367zfl\2020\374\325>>P~\267\b\241K\320\306\013\020n\332"
	.ascii	"q\035\032M\230P$$|:\212\244\207\205b\fI]\202\"\331\250dS$;\225"
	.ascii	"\354\212$RIT$\007\225\034\212\344\244\222\223\204\367=\016\222"
	.ascii	"\253\324\002\222K\221\334Tr+\222\207J\036E\362R\311\253H>*\371"
	.ascii	"\024\311O%?\tO\235G \006\246\274 \006\224\316 \355\f\222\360"
	.ascii	"\320C \205\344wW\b\207\345\245\275\332\021\306Xn@T\2664\021\301"
	.ascii	"f\027\035N\227\333\343"
	.string	"\365\371\003\301P\030oYC\243\365`/FK\321\007\222\264C\312IO\345n\316\316\266\2470\"\210`\264\026\243\302\211D\013Ja\214:\220\214\004\331\214\3015\263|\216Z~.X6|\236\032\336\266n\370\0025\034\266\377\267\341\316\035\027rC\302\373\322\314\354\254\220\302\002\242k\2747A\230\345J\305\322Y\247%\272\357\314tq\261\305\361G0\f\f\363\307\035uD\306h\272\227\231\016\325\021\323a\003W;\213\351\211[u\304\324\220F\225\256\365\232\213\343\217\231\251\345\242\213\343O\230\245\345\252SCTO\331\231/t\310\372\234\367\357:\265m\344BN5V>_\274\026\346\237\264\332n&Z\207\225\241\366DjW\211\326Sy\325\263\225\353\231\255\306j\272!\253bCV\371\206\254*\221F\254J\rY\025\033\262\3127d5\323\326P4\032\262*7dU\252\303j\270v\256]\037b\213\263\021\364\"="
	.string	"K\273\232\347\265\304\345q\361\034\221n\316nA\350\021\371\223}\004/\005\3438>\n("
	.string	"\036\003\264\001~\006h\007\374\032P\004\234\002t"
	.string	"~\005\350\004\274\004\350\002\274\b\350\006\314\003z"
	.string	"\277\004\364\002^"
	.string	"\364\001\236\007\364\003~\001\030"
	.string	"<\007\030\004<\013\030\002<\004\030\006\374\024\260\tp\037\340\002\300\375\200\013\001\017"
	.string	"6\003\036\004\\\004x\030p1\340\031\300\026\300\323\200K"
	.string	"w\003\266\002N"
	.string	"\266\001\356\001\214"
	.ascii	"N\002F\001O\001\266\003^\006\204\307\216\266IR\220\036\251\362"
	.ascii	"\263JF\371\242\264\n7\321\206\260\032bG\033\227\344k\020?\221"
	.ascii	"s\222\266\3238\bZ/\307\034_\3451\237c\267\331\214^Ia'V6+I\032"
	.ascii	"\262s\027.\202\372h\332\362#\353\230\013\t+>\202Uy\243o\035\227"
	.ascii	"\252\353\317\200\221\311\034\331\227\225\314\327\025$\026N\036"
	.ascii	"\366\2610\330X\031\260\"`%\300\013\200F\211\001\216\343oi\317"
	.ascii	"5\371\2007>\004&\312\301\035\005bF_\bb\276\035\217J\303+S\330"
	.ascii	"m\230\3308\346\365\2321\250f\314\033\312\030\017HIX[U\367\233"
	.ascii	"\206nR\335\375\216\241[\250\356\336e\350\266)A\206E~\217\355"
	.ascii	"J\020\250Z\257<F\225\202Qy\224*\211Qy\204*1UN\037q35O\337N]\372"
	.ascii	"\3061\315_a\352\226\2676\2011\324\t\203lf\365\023\307\005z2c"
	.ascii	"4\177\3710\245\276\224\224\207\263+\234\236\300s\323\233\250"
	.ascii	"\203^\034\377E?\222\262\032\233M\304bS83\337D\373-ND\314&b\231"
	.ascii	")\234\235o\242\243\026'\022\314&\202\261\227\321\326\023Bi\244"
	.ascii	"9\216o\300LIl\007\255V\354\027Q\3767y\223U\372\264\n\347\317"
	.ascii	"j\231l1&P7\3456>RT\275H\222d\253q$\2329\202a\333#\314QEu\344"
	.ascii	"\3209\"5~\034f~\340\263\375S\210\371\231Q\3758\365\204\2345\216"
	.ascii	"\234f\216\340&\366\207\2339\312G\370H\227\336Q\260\306\221\313"
	.ascii	"\314\221\003\241k\"8\312\255\270:\272\221\215|\017\275\213\345"
	.ascii	"<nFw%'l\305\270\227}\361\227\315\035J\242\2644P\016\305Q5In="
	.ascii	"\211\216\032\022n3\022\260\350\2556Jb\332:\t\302I\2244\022\036"
	.ascii	"(\324\271*\305c\306\300\205\320$\246\f\312\326\031\b\234AEc\340"
	.ascii	"U\031\230\324\230\327\214\002l\323+(\203\031\353\fl\234A~Le\340"
	.ascii	"\323\030\230\344\301gF\0016\352&V\013c\226)\330\325Z\320(\370"
	.ascii	"u\024L\302\3407\343\340EHd\205=\035\345\003\003:?+k\334\004\314"
	.ascii	"\334\370\2400\350RJ\326\227\"\362\245\224\265\245\004\365K\251"
	.ascii	"\345\0204\343\340\007\247\302\334\327\212Sl\233\274\332Z\307"
	.ascii	"\265B~\256 \241p\367\200\300.\f\204\335\356\330\335N\271J02\332"
	.ascii	"#\237\n\347\360\377\275\024\204\346?\326\303\262\222\235\313"
	.ascii	"\257\021\273B\210\252\365\312CT\031\222\343\232+\013\305\343"
	.ascii	"a\326\221\304M\232\026q\335\002j\016\031\330\253\351\026\202"
	.ascii	"\232\361\355`\3319\250\3655S7\013\253\335,\202\036%\221\205;"
	.ascii	"\267\bO\325b\350\221=\331i\236/\242m\277ki\\\254uhi\f\310\001"
	.ascii	"b{\266Z\221-\372r\220j7\231\026\263z\b2G\271\025\371q\3135\351"
	.ascii	"P\243|\203\237\272U7\3468\376\206\375\220P\347\225\231\3358\325"
	.ascii	"\273\257\312\311\354'\212b\225\347yk\325\201j\257\300\273i\255"
	.ascii	"N\320\367\036\372\236T\353\0262\363\026\221U;\351\333X\303\272"
	.ascii	"\313o\034\377\b\rm\016E9\255*\221\246\374\031\224I\274D\225\177"
	.ascii	"\241r\253*\377J\3456U\276M\345\210V\313o\323\262\235\244e\033"
	.ascii	"1*\367Pe\233Q9A\225\255F\345n\252\\\242]Q\231\372O\235\272$p"
	.ascii	"\355\035\235\207\262\252\375[7YE\325V8/V\335\367\264\352\216"
	.ascii	"\202\013\355sb,\312\250YQ\206xQN[/J\247\352%\314\276\317]G\030"
	.ascii	"\363\331\332\345\236\037P;\237\224\224F\356\020.\b\345\221\177"
	.ascii	"T\301\306~5\220\233\366\031\265)\262\337-\344\371\034\305\b?"
	.ascii	"\353\235\245Q\356E@\256J\204\237\177\356\374\030whG\236b\224"
	.ascii	"7\275\323Q\276\251\373\312j\323_\031;I\270\020\230QM\035(X\034"
	.ascii	"\347\376\235(T\032\317\310_[1]\235\274\375\341\3565\261\227\322"
	.ascii	"\033R\261LzCwo_\354\311L\272?\221\336\024{&\225\031H\307\236"
	.ascii	"\356\356\353I\275\234\310\244\263k\263\251\201l\354\331T2\233"
	.ascii	"\316<\272\254\263Ki\306\0062\311Xo\337@63\220\312\256\355IeA"
	.ascii	"\333\231\354\357G8\201\223\270G\354\005u\347r1=\230\355\037\314"
	.ascii	"\332\272\023\311\036\377\272\301\276d\2667\335\3277\270!\221"
	.ascii	"\312\210\311\376\301\336\036D\272\021I\"\341\211n\370O\300\277"
	.ascii	"\334\356A\242l\360@\027\203e\f\036c\260\\Hf3\216M\353S\331\304"
	.ascii	"F\364/\262\327\3228"
	.text
	.section	.gnu.lto__Z7hasFMA3v.part.1.5530f8220aa561e1,"",@progbits
	.ascii	"x\234\235T\315k\023A\024\177ofwS\241J\217\352AK\021\024\304\256"
	.ascii	"\025\017^\204\036<\364\"\330B=\2101&\233\255\006\332l\330l\300"
	.ascii	"\217C\307\250P\244\207P<\304\202X\241\204 \026\305\017\264\202"
	.ascii	"\212\"\036T*\004\361\334\203\005\017\376\tB|3\263M\272[M[g\331"
	.ascii	"\375=\336\233\337\373\234\035\006H\317\372u\220\3369\013`\201"
	.ascii	"\020M@\243\262D\202\201L!C.\361Z/G\224\002\271\2304\030\307\311"
	.ascii	"Q\345+\321\007\367\205\250\210\262\030*/7\233{]\004\006\f!\205"
	.ascii	"\320X\314\354\002\027\021zA\"\003#\032\367o\3143\212\371\222"
	.ascii	"o\231xV\021\177n\235xN\021\253\346f\210\357\313-\"\250\n\247"
	.ascii	"W\366o\314\233]~W\336\031\362\270\342}9\240Y]!\0137\025\255\232"
	.ascii	"\350\030\013\177\325\255\267L,7'\001\266!$q\036\373\250\276$"
	.ascii	"\326\b9a\235\320 |@h\022>$\264\b\027\b\023!\3222\341\206\020"
	.ascii	"=2\240Z\303\022\345\340\207\321P\002\037\241\330J\370(\007\255"
	.ascii	"\263\235\251\224\305\024\237\023\277\233M\356\242\301\340\274"
	.ascii	"j\353\207\372n\235\363`\230sW4\347+p\331E\023u\301\025!\246\314"
	.ascii	"U\027\026\203\013\312\305\267\372\230v!0\364\321\023\253["
	.string	"}\327\344\022\033\360x4\223\177tO*\265\257\317`5^=\331\256\333`\3506\352&\352\026\2566P\232Y\022\237+\325\343\226\n\223\370T\251\036\321\277\024[\214\202^\345\224\023\250\017\300\036(\343]Q\035t1\021\311!\272\347\346\272=\260n\317T\270G6\330\2412c\346\351\210\231\305\315\225\210\231\307\315\267#f#\3547\325\370\002\315\260\037J\275VYWJ\036U\326\224\222E\225\363J\211\361\031\316\f\211p\206I|F\234\024b\343\326J\367\372)\316\302\035\224\223\356p\230Z\036`\343\263$\rF\353\\\205\253c~\f\252\210k\274wH.\211_)\301v\030#\036F\367\246\361\272\206\272=\355h\355\023}OG\333T7\342\001\273\342\001y\247\272j\377[Ww<\fq>\301\365E\376\243\376\206~\232E\252\314A\223\242\353\363,zA\331\227\344=\245\215\026\331\333\207]\256\021\231\253\274w\226"
	.string	"qu\233\374'\340;$\034yc\310K\n\325\036)cz\324\276\350M\270\266\357M\244sy\373\204\357\0252\336%\373\224\353\027=\373d:\237u\3073\276\027\244\002\267\030\330\247]'\360\374C\003\375\207C\321.\372\216\235\313\027\003\277\350\006\251\254\033\220\266\337)\024"
	.string	"3\350`\326\362JA\241\024\030\351\214\223\3351V\312;A\316\313\347K\023\031\327\267\234B)\227\005\226\006\346"
	.ascii	"?\236\2467C\257\224\263`I\302\276\243\032\216%\024\f\034\371"
	.ascii	"\003\3545f!"
	.text
	.section	.gnu.lto__Z7hasFMA4v.part.2.5530f8220aa561e1,"",@progbits
	.ascii	"x\234\235TKk\023Q\024>\347\316#\025\252t\251.\264\024AD\354X"
	.ascii	"q\341F\350\302E7\202-\324\205\030c2\231j\240\315\204\311\004"
	.ascii	"|,z\215\n]\270\b\305E,\212\n%4b"
	.string	"Q|\240\025T\024u\241R!\210\353.,\270\360\007\270\020\342\271\367N\222\316D\223\326\023&\337\345\234\373\235\367\f\003\244_\273\354\245\347\275\t\260H\210\006\240^Z\246\203\216L\"CM\340\245~\rQ\034\310\305\264\3164\234\036\227\276b\003p\227\363\022/\362\221\342J\275\276\323A`\300\020\022\b\265\245\3246p\020\241\037\0042\320\303q\377\306<!\231\317\265\r\023OJ\342\217\215\023OIb\331X\017\361m\261I\004Y\341\315\325\335\335ys+o\212[\003\236&y\237\367(VO\300\302uE+\307:\306\302\237U\3635\343+\365i\200M\bq\234\307\001\252/\216\025B\215p\201P'\274Gh\020\336'4\t\027\tc\001\222\030p\205\363>\021P\312\250@1\370Q\324\345A\033\243\330\362\360A\fZe;[*\362\031\355\016\377]\257k\016\352\fN\313\266\276\253nW9\017\0079\367\204s\276"
	.ascii	"\347\0354P\025\\\342|\306h\2700\031\234\221.\276V'\224\013\216"
	.ascii	"\201\217\276H\335\362\177M.\221\001O\2063\371G\367\204\222\266"
	.ascii	"\234s\376\253N\202\365\206\220\366\023\230\265\027\2176\253\306"
	.ascii	"\350\252\261\252\255\252\251\215\226\n3\213\343S\251z\330Ta\034"
	.ascii	"\037K\325\003z\273\"\302(\215\213\032e\t\362\017`\007\024\361"
	.ascii	"\026/\017;\030\353\222U\230u\265\215%$|g&\270#\206`c\233\213"
	.ascii	"k!3\213\232K!\263\0265_\017\231\365`&T\36534\202\016I\365Z\345"
	.ascii	"\202TjaeE*YX9/\225\030\235\363\354\b\017\346\034\307'\304I \326"
	.ascii	"\346V{\333'"
	.string	"=\0077PlC\207\205kz\200\356\373&\fzs\367\002\351\230\037\2032\342\032\357\035\222\213\343\027J\260\025F\217\206Q\275\251\275\254\240jO+Zk\353o\253h\353\352F4`O4\240\326\251\256\312\377\326\325\033\rC\234\217pyI\373^}E\257\321\022Uf\243A\321\325>s.|\322\205e\3611SV\223.\264\266]\310\230HV|\234\226\001\261qM\274\024\360\rb\266\370\254\210/\031\312;\342\214\311q\353\254;\345X\236;\225\314d\255#\236\233K\271\347\254c\216\227w\255\243\311l\332\231Ly\256\237\360\235\274o\035wl\337\365\366\r\r\356\017\216V\336\263\255L6\357{y\307O\244\035\237\264\203v.\007\230B\033\323\246[\360s\005_O\246\354\364\226\211B\326\3663n6[\230J9\236i\347\n\2314\260$0\033\264\303IzR\364\210s\032LA\330uP\301\241\230\204\241\003\177"
	.ascii	"\034\035\206\272"
	.text
	.section	.gnu.lto__Z6hasXOPv.part.3.5530f8220aa561e1,"",@progbits
	.string	"x\234\235T\315k\023A\024\177ofwS\241J\217\352AK\021\004\305\256\025\017^\204\036<x\021l\241\036\304\030\263\233\255\006\332l\330l\300\217C\307\250\320\203\207P<\304\202\250PB\t-\212\037h\005\025\245xP\251\020\304s\017\026<\370\007x\020\342\233\331M\322\335h\332\372\302\3467\2747\277\367\275\313"
	.string	"\351\327)\007\351Y6"
	.string	"\026\tQ\007\324\312+t\320\220)d\310%^\357\347\210\362@.\2464\306qjL\371J\f\300C!\312\242$N\226V\033\215\275\016\002\003\206\220B\250/Y\273\300A\204~\220\310@\213\306\375\033\363\254b\276\344[&\236S\304\037['\236W\304\212\276\031\342\373R\213\b\252\302\205\265\375\033\363fW\337\225v\206<\256x\237\017\004\254\236\220\205\233\212VIt\215\205?k\306[&V\033S"
	.ascii	"\333\020\2228\207\003T_\022\253\204\234p\236P#\254\021\352\204"
	.ascii	"\013\204\006\341\"a\"D\022\035n\n\321'\003*\031\221(\007?\202"
	.ascii	"\232:\360Q\212\255\016\037\344\240\203lg\312%1\315\037\210\337"
	.ascii	"\215\006wPcpA\265u\271\266;\310y8\314\271'\232\363U\270\342\240"
	.ascii	"\216A\301e!\246\365\246\013\203\301E\345\342km<p!0\364\321\027"
	.ascii	"\253[\375\257\313%6\340\211h&\377\350\236T\322\226\013!~5H\260"
	.ascii	"\321\024\322~\002\243\376\352\311\366\2401Z\320\330\240\255A"
	.ascii	"S\233-\225f\226\304\347J\365\270\245\302$>U\252G\364v\305\204"
	.ascii	"Q\032\3278e\t\352\017`\017\224\360\236\250\f;\230\330 \253(\353"
	.ascii	"V\007KJ\364\316txG\016\301\306\016\027\267#f\0267\227#f\0367"
	.ascii	"\337\211\230\265p&T\365\013\324\303\016)\365z\345\274R\362\250"
	.ascii	"\262\252\224,\252\234SJ\214\317y\346\244\b\347\234\304g\304I"
	.ascii	"!\326kk\275\235\223\236\205\273(\267\241\313\302\265<\300\306"
	.ascii	"\373&\rZk\367B\351\232\037\203\n\342:\357]\222K\342\027J\260"
	.ascii	"\035F\213\207\tzS\177]\305\240=\355h\355\255\277\037D\333T7\342"
	.ascii	"\001{\342\001y\267\272\252\377[Wo<\fq>\302\215%\376\275\366\206"
	.ascii	"^\243%\252\314F\235\242\007\373,\344\034\310\276\"\277e\201\321"
	.ascii	" {{\331\245\214\312\\\345\267i\005\020\233\327\344;\001\337 "
	.ascii	"a\313\257\212\374\220\241\272#\317\230\0363/\271\223\216\351"
	.ascii	"\271\223\351l\316<\341\271y\313\275l\236v\274\202k\236J\3472"
	.ascii	"\316\204\345\271~\312w\n\276y\306\261}\327;44x8<\232\005\317"
	.ascii	"6\263\271\202\357\025\034?\225q|\322\016\332\371<\240\2056f\f"
	.ascii	"\267\350\347\213\276\226\266\354\314\216\361b\316\366\263n.W"
	.ascii	"\234\264\034\317\260\363\305l\006X\032\230\r\374x\232\036\213"
	.ascii	"\036y\316\200!\t\373\216\006p,\241`\350\310\037)\275\206{"
	.text
	.section	.gnu.lto__Z15instrset_detectv.5530f8220aa561e1,"",@progbits
	.string	"x\234\245UOH\024Q\030\377\27673\253u\b\203\020\0021\211\016\035\312\321D\350\022x\350\260*A\005u[\226\335\331\321\026tg\331\235\215\362\342\270x\360\226x\332\322\376R\251\210ht\320\304P\312\"J\004!:u\350\020[\007\351\324\245\020\266\357\2757\2433[\232\213o\231\371f~\357\373}\277\357\315{\337\267\f\220~\177\2176\272\272\253"
	.string	"\026\310b\b\220\r\257\001\f40\246-5\203sRY\257\003\247Ia\332b=\275\251\037uzSQ\343N\250!rKa\373\231\242j\330\177E\bT\035\207\207\2163\354\274\312\207\363_J\245c&\002\003\206\020E(\276\233;u\024LDh"
	.ascii	"n\031\250\301l\004\265\340\247\002\347m\214>\302]yI\004W5\357"
	.ascii	"\370T\243R\265\360\355\310\377U\313\2501A\375\256TL4\004q\276"
	.ascii	"r\242)\210C\273\023\213\205\271\317\312\306\375\320\022["
	.string	"\376R\352\007\270\206\020\301\247x\234\370\021|L\266\325}\017\223\235&\333Nv\212l\007\331I\262\235d\307\311\322\320`\320qj\270\250\030\227\270\345\033z\231d\371\203\362\036\362\355_Gk\245\037\333\372\306\303\2163\244=p6K%\305D\205A\267H|e\254Kf\356\240\233zM0\365\b\316\240&\037\rdw\3406\362e\367\301/\247\332D\025\223\362|r\252*\016\025\037o`\260\210\224B\004g\211K4>\035\f{\031\025\200\365:\236\354\331\315\321\353\322s/\321\267C\275\005\2662\366\003%\325\333\232\021\337\326\364\210\025\026\376\2615:4\222\207\032\301g\364M%,G \313\200\324|\325\316B\331J\204p\037B}\225\b\261}\b\r`%JJ%J#\303ygH\361\016\242\312`Hj\255\216\326J\26167ju\360\304\364\301M\223\232\227\324\305\235O\200\2778o\225\205\336\241<\267\223\375"
	.ascii	"\241\342\304\370'\224\305\243\312b\224\245(\013Q\226\241[[\021"
	.ascii	"|+\240\327\342>\353\325\211\030\2144\356\321!\247]P\344V\324"
	.ascii	"\303\023\274\353\024\332Lj\330~\315\240\317\304\036|\246\\\037"
	.ascii	"\372\003\240\352\n\227O"
	.string	"\317\004\246\333\313\247\237\007\246;\312\247\347\002\323\235\356w\246\365\275\243\365\311\345\013\330\017N\n\260#\bN\t\260=\bN\0130,\300\317\317\017z\360\234\017\376\252x\350\202/\302\306\026\372\322'\366s\013]\366\362z\003+E,N\2748\345u\237\360\277\272\017\355\316\342ae\025\024\224\r\316\300V\267\353Tc\024Q\372\233x\300\363\327do]\003D/\256\360\371\004H\375\215y\177ub\257>\216\375&\260UE\336\235Q\020\371\267\r%\263\246\335\330rE\277f\365\232z\306\352\215%S\372\371\214\225\216[7\364\213f&k\351\027b\251\204\331\023\317Xv\3246\263\266~\3254l+s\272\271\261\311}\324\263\031CO\246\262v\206bE\023\246Mh\243\221N\003&H2\21615\0267\022!~;\321$M\2634g\244i\tY9;\235\263\017u\345R\206\235\264R\251\\o\334\314\204\214t.\231"
	.ascii	"\026\003f\200r.FW\234.\376\234\200?\346\230\231F"
	.text
	.section	.gnu.lto__Z7hasFMA3v.5530f8220aa561e1,"",@progbits
	.ascii	"x\234e\221\273K\303P\024\306\317w\223\326\272\210\223\017\020"
	.ascii	"-N.z\365\177pp\021T\2508XJ\233^Q\320\246$\031\304\245\327\342"
	.ascii	"\240[g'\005\037\231\235\305\027\272\2108\025\347.:\371\007(\b"
	.ascii	"\361\334$\005\037'\t\337\315"
	.string	"\311w~\367\334\023A\340\353\177\314\360s\305\037VY\221!\210\3263\321n^\b\373r\224\364\204\325\226\244\247-\330&\r\0330\312\240\206\260l4\n1Q\214\323\261\326-}\327\234kv\242hL\231l\t\364x\360:2L\n\240<\031\025d\377\336;\256;\354\3346\207\322:+\256\373\350M\252ri\325\237\266\357\303\013\274\207\331kq\323\211\032D\203\240\"N1N\202\365\204\265/}\347\310\320\236\326\375\206\031\307\242Qs\200%\246\232\205\365\304w\370\206\304\207\344\034-\255\3673G\372+\212,\005[\320\n\f\240\035\256%]i\244m\365\377n\253\2103\346\304\341@\354\320\247\316)dP\002\222\335\025\262D\017\264\367\212\247p\240\210s6\263\317\240\210\262?8Kf\nmiZC\302t\320\227\342z\030'\272\270\\\327o'gy&\240\313\215=/\004\203\267\314/\372\350e\212\0053\003\304v\036"
	.ascii	"\025\344\272\273\245\244\347n\2257jr\326s\353\025w[.(\317w\345"
	.ascii	"|\271VU\233\025\317\rJ\201\362\003\271\254\234\300\365&g\246"
	.ascii	"\246\323\245\364=Gn\324\374\300\363UP\252\252\200\263SN\275N"
	.ascii	"v\271\342T\277\001\255\210\177p"
	.text
	.section	.gnu.lto__Z7hasFMA4v.5530f8220aa561e1,"",@progbits
	.ascii	"x\234e\221\273K\303P\024\306\317w\223\326\272\210\223\017\020"
	.ascii	"-N.z\365\177pp\021T\2508XJ\233^Q\320\246$\031\304\245\327\342"
	.ascii	"\340\330U'\005\037du\026_\350\"\342T\234\273\350\344\037\240"
	.ascii	" \304s\223\024|\234$|7"
	.string	"'\337\371\335sO\004\201\257\3771\303\317\025\177XeE\206 Z\317D\273y!\354\313Q\322\023V[\222\236\266`\2334l\300(\203\032\302\262\321(\304D1N\307Z\267\364]s\256\331\211\2421e\262%\320\343\301\353\3100)\200\362dT\220\375{\357\270\356\260s\333\034J\353\254\270\356\2437\251\312\245U\177\332\276\017/\360\036f\257\305M'j\020\r\202\2128\3058\t\326\023\326\276\364\235#C{Z\367\033f\034\213F\315\001\226\230j\026\326\023\337\341\033\022\037\222s\264\264\336\317\034\351\257(\262\024lA+0\200v\270\226t\245\221\266\325\377\273\255\"\316\230\023\207\003\261C\237:\247\220A\tHvW\310\022=\320\336+\236\302\201\"\316\331\314>\203\"\312\376\340,\231)\264\245i\r\t\323A_\212\353a\234\350\342r]\277\235\234\345\231\200.7\366\274\020\f\3362\277\350\243\227)\026\314\f\020\333y"
	.ascii	"T\220\353\356\226\222\236\273U\336\250\311Y\317\255W\334m\271"
	.ascii	"\240<\337\225\363\345ZUmV<7(\005\312\017\344\262r\002\327\233"
	.ascii	"\234\231\232N\227\322\367\034\271Q\363\003\317WA\251\252\002"
	.ascii	"\316N9\365:\331\345\212S\375\006\323\342\177\205"
	.text
	.section	.gnu.lto__Z6hasXOPv.5530f8220aa561e1,"",@progbits
	.ascii	"x\234e\221=K\303P\024\206\317{\223\326\272\210\223\037 Z\234"
	.ascii	"\\\364\352\177pp\021T\2508XJ\233^Q\320\246$\031\304\245\327\342"
	.ascii	"\340\330\331I\301\017\314\340/\020\277\320E\304\2518w\321\311"
	.ascii	"\037\240 \304s\223\024\3748Ixo"
	.string	"N\336\363\334sO\004\201\257\3771\303\317\025\177XeE\206 Z\317D\273y!\354\313Q\322\023V[\222\236\266`\2334l\300(\203\032\302\262\321(\304D1NGZ\267\364]s\256\331\211\2421e\262%\320\343\371\353\3100)\200\362dT\220\375{\357\270\356\240s\333\034J\353\254\270\356\2437\251\312\245U\177\332\276\017/\360\036f\257\305M'j\020\r\202\2128\3018\t\326c\326\276\364\235#C{Z\367\033f\034\213F\315\001\226\230j\026\326\023\337\341\033\022\037\222s\264\264\336\317\034\352\257(\262\024lA+0\200v\270\226t\245\221\266\325\377\273\255\"N\231\023\207\003\261C\237:\247\220A\tHvW\310\022=\320\336+\236\302\201\"\316\330\314>\203\"\312\376\340,\231)\264\245i\r\t\323A_\212\353a\234\350\342r]\277\235\234\345\231\200.7\366\274\020\f\3362\277\350\243\227)\026\314\f\020\333y"
	.ascii	"T\220\353\356\226\222\236\273U\336\250\311Y\317\255W\334m\271"
	.ascii	"\240<\337\225\363\345ZUmV<7(\005\312\017\344\262r\002\327\233"
	.ascii	"\234\231\232N\227\322\367\034\271Q\363\003\317WA\251\252\002"
	.ascii	"\316N9\365:\331\345\212S\375\006\363\260\177\226"
	.text
	.section	.gnu.lto_.cgraph.5530f8220aa561e1,"",@progbits
	.ascii	"x\234E\307\301\r\202@\020\005\320\2773\263;u\021\n\373\t'\016"
	.ascii	"\2426\240gc\031\036\214\201\204\0260\024B4\262q\336\355\t\022"
	.ascii	"\024\300\035\225<\235\300y\006y\351\223\274\234)6:%695v0\332"
	.ascii	"\276\353w\2031\307\216\306\022;\031\375?5`\035\227V\263\241{"
	.ascii	"o\215\346\204\307mn\264\324\027\331\357\365\256\277\343\003<"
	.ascii	"\2538\331"
	.text
	.section	.gnu.lto_.vars.5530f8220aa561e1,"",@progbits
	.string	"x\234cb`d`f```g\200"
	.string	"\306\211,\f,\365\314"
	.ascii	"\005\212\001*"
	.text
	.section	.gnu.lto_.refs.5530f8220aa561e1,"",@progbits
	.string	"x\234cb`d`f``\220b\200"
	.string	"\016 \017\0252\261@T"
	.string	""
	.string	"\0072"
	.ascii	"K"
	.text
	.section	.gnu.lto_.statics.5530f8220aa561e1,"",@progbits
	.string	"x\234cb`d`b\300\016@\342\214\020&"
	.string	""
	.string	"\375"
	.ascii	"\t"
	.text
	.section	.gnu.lto_.decls.5530f8220aa561e1,"",@progbits
	.string	"x\234\255Vmh[U\030~\317m\326$M\311Z\221\222\372\325*\314\037\233\313]\3278\177\370\201\342W\377L\367g2\n\227\220\246\201\006\272$Kn\305\375\220\235\306A\313\020\031~@YA6mu\311d\244\222\316\366GK\f\022\206l\243cus85\373\300?\376\024A\375a|\317\315\271\237\275\367\246+\036x\3267\347\276\357\363<\347=\347\334;\001\b\260qI"
	.ascii	"h\340\370\273\003\340}\234\362\343\334\363\240\017\037b\016Q"
	.ascii	"@\224\020e\304\022b\005QE\324\020\214\351{0\017V\323\211\360"
	.ascii	" \202<\366\".#\326\020\355\210g\021\327\020\353\210\353\210\237"
	.ascii	"y\255\300\353\227\034\270\231\027\277\205\373\\\013\276\002\367"
	.ascii	"l\035\245-p\225\370\332\255\243\274\005.VS\263\341bk\357\260"
	.ascii	"p\255\033\270T\236:b\336\300\307\352X\357\354\372\266\342\340"
	.ascii	"\217\361\336F,#\356 \212<\277\215\3270\316\202\215\307\352&\370"
	.ascii	"\356\"\026\f|U\316W\262\341\253m\202\357\036b\321\300W\343|e"
	.ascii	"\033\276>\370\224V\326\352\223\371\320_\215\206\267\007>\241"
	.ascii	"8*\357QJ\216H\304\343\207^\220H\320\317\3168\213:\375\300\357"
	.ascii	"\204D\346I\017\217\016\2655\271\004\020\b\354\204\002UF3\217"
	.ascii	"\247\303c\260z\352\233\247T\325'a\236\322\223\264\232\037RD\030"
	.ascii	"\311\034\351\203\031\257*\327\257\311y\324\032\211|A\204\r\326"
	.ascii	"+\266\326}0Ei\236\375\230$G\300a\021;`N1\232'\0229G|h\377]6]"
	.ascii	"\374\370q\233>5S\330\350\325c-$N\032\254\260h\323\250\017\b\301"
	.ascii	"\337_\222\235\260z\342j\304\324\226\017\353\337\346C\252\204"
	.ascii	"D\n\330\227\263\333\234\330\225\224\363\233\356K\223\326\331"
	.ascii	"\352\202\215\3253\232\325\357\n\017\2719-\265v"
	.string	"\372\365\377\346t\321\306iYwZtuZfg\315\335\351\205\215N\353xM(s:\325u?\367d\331\306iMszi\266\307\344\224\232.\305R\253K!\300uB\f>\025\243\247+NF\335{\272j\343\364w\275\247g\315=\315\233{\272\322j\367\005\370\303\325jS_\200\206\343y\263(V[+N\t\233Q\374Hp:7\026\305Z\253s#\300)\263\342\023p\206\3225|\025\r\345\353\215F\237\262\261\002\314+\202lso\315~F\234\266W\200\"'c\363\354D4\324A\364\b\277\006\323\354]G\217\323\241\213A\375=dfS\336u'\331[Y\"\227\t\363P\323\026\375\357W7\376\344\207]\"\333\374F\373\332\357^-T#&\276\035\232\352\224\236>N\247\311\344\302#\272\376\213\232\276\317\242\277\246\350\377\246\351\377s~\366\312\243\252^\273E\277]\327g!U\207\241\003\3523u\342\030@"
	.ascii	"N\260\236\250\256\272\201I\323\376\213A\323]\305O\224\352\261"
	.ascii	"\213\313\255\223n%\262,KI\262_\031\253\372\201\350.;\375\306"
	.ascii	"\210\337#\227\332k$\240\256\226\333\254\267\315\004\271~\345"
	.ascii	"\363Jh&\330\372\003\246\245\323P\310)[\"?\222\035\370\357M\203"
	.ascii	"Y%\2466\247J{x\214\235\303\3516\267\017\343}\023\252\376\272"
	.ascii	"4\177\202u\375\315d\247D\211\374\264\245}\272\345\270O\304\264"
	.ascii	"\"5Ou\324\317\f\3350\030\nY6\330\230w\323%O\"\277l\311\370\257"
	.ascii	"\216\306\005\223q5\317z\001\232\377[s\346\257\353\207pC\345\262"
	.ascii	"k\345m\227\312\242k\345\035\227\312\005\327\312\273.\225\213"
	.ascii	"\256\225\367\364Jx8:<\360t2\225\223\263\271\204\034\035M\310"
	.ascii	"\211\270\374v8\023\313\312\341=\276\327\3378\330\377\362\256"
	.ascii	"]pP\034K\037N\210\331\364\341X2%\276\222MgF\322\357\210\007\022"
	.ascii	"\331\\Z\334\037K\215&\306G\262i9*'r\262\370\026\022\244\263\273"
	.ascii	"\007\302{x(\346\262q\321\242\020\216g2\340\031I\247\307\003\317"
	.ascii	"\215L$\307\345\335\311\324\013\360@t\370\231\261X\356\265\375"
	.ascii	"/\rr\013\003\372T\204O\355\355\216\016\357\303\251Co\036\340"
	.ascii	"3\203\333-\354\017\332\255\311\313\231\003\006\021>\027\t\030"
	.ascii	"T\332\233\334\035\272\212'\2114\330'\033\322W#\354\231o\"\231"
	.ascii	"\222\007\367F\345\036q\"\227\305\265\306\307'F\023bN\036\305"
	.ascii	"\371\360\030x\361\317\276HT\3565?>\232\023\345\243\231D\0163"
	.ascii	"<\361\261X\366?\350\240\340\207"
	.text
	.section	.gnu.lto_.symtab.5530f8220aa561e1,"",@progbits
	.string	"_Z15instrset_detectv"
	.string	""
	.string	""
	.string	""
	.string	""
	.string	""
	.string	""
	.string	""
	.string	""
	.string	""
	.string	""
	.string	""
	.string	"\270"
	.string	""
	.string	""
	.string	"_Z7hasFMA3v"
	.string	""
	.string	""
	.string	""
	.string	""
	.string	""
	.string	""
	.string	""
	.string	""
	.string	""
	.string	""
	.string	""
	.string	"\275"
	.string	""
	.string	""
	.string	"_Z7hasFMA4v"
	.string	""
	.string	""
	.string	""
	.string	""
	.string	""
	.string	""
	.string	""
	.string	""
	.string	""
	.string	""
	.string	""
	.string	"\302"
	.string	""
	.string	""
	.string	"_Z6hasXOPv"
	.string	""
	.string	""
	.string	""
	.string	""
	.string	""
	.string	""
	.string	""
	.string	""
	.string	""
	.string	""
	.string	""
	.string	"\306"
	.string	""
	.string	""
	.text
	.section	.gnu.lto_.opts,"",@progbits
	.string	"'-fexceptions''-mtune=generic''-march=x86-64''-g''-Ofast''-pedantic''-fpic''-fno-common''-flto'"
	.text
	.p2align 4,,15
	.globl	_Z15instrset_detectv
	.type	_Z15instrset_detectv, @function
_Z15instrset_detectv:
.LFB525:
	.file 1 "/home/romain/Dropbox/Perso/Mandelbrot_test/Vector-1.0/Vector/src/instrset_detect.cpp"
	.loc 1 89 0
	.cfi_startproc
.LBB59:
	.loc 1 92 0
	movl	_ZZ15instrset_detectvE4iset(%rip), %esi
	testl	%esi, %esi
	js	.L34
.LBE59:
	.loc 1 125 0
	movl	%esi, %eax
	ret
	.p2align 4,,10
	.p2align 3
.L34:
.LBB66:
.LBB60:
.LBB61:
	.loc 1 26 0
	xorl	%ecx, %ecx
.LBE61:
.LBE60:
.LBE66:
	.loc 1 89 0
	pushq	%rbx
	.cfi_def_cfa_offset 16
	.cfi_offset 3, -16
.LBB67:
	.loc 1 98 0
	xorl	%esi, %esi
.LBB64:
.LBB62:
	.loc 1 26 0
	movl	%ecx, %eax
.LBE62:
.LBE64:
	.loc 1 95 0
	movl	$0, _ZZ15instrset_detectvE4iset(%rip)
.LBB65:
.LBB63:
	.loc 1 26 0
#APP
# 26 "/home/romain/Dropbox/Perso/Mandelbrot_test/Vector-1.0/Vector/src/instrset_detect.cpp" 1
	cpuid
# 0 "" 2
#NO_APP
.LBE63:
.LBE65:
	.loc 1 98 0
	testl	%eax, %eax
	je	.L2
.LBE67:
.LBB68:
.LBB69:
.LBB70:
.LBB71:
	.loc 1 26 0
	movl	$1, %eax
	movl	%esi, %ecx
#APP
# 26 "/home/romain/Dropbox/Perso/Mandelbrot_test/Vector-1.0/Vector/src/instrset_detect.cpp" 1
	cpuid
# 0 "" 2
#NO_APP
.LBE71:
.LBE70:
	.loc 1 100 0
	testb	$1, %dl
.LBB73:
.LBB72:
	.loc 1 26 0
	movl	%ecx, %edi
.LBE72:
.LBE73:
	.loc 1 100 0
	je	.L2
	.loc 1 101 0
	testl	$8388608, %edx
	je	.L2
	.loc 1 102 0
	testb	$128, %dh
	je	.L2
	.loc 1 103 0
	testl	$16777216, %edx
	je	.L2
	.loc 1 104 0
	testl	$33554432, %edx
	je	.L2
	.loc 1 106 0
	andl	$67108864, %edx
	je	.L35
	.loc 1 108 0
	testb	$1, %cl
	jne	.L5
	.loc 1 107 0
	movl	$2, _ZZ15instrset_detectvE4iset(%rip)
	.loc 1 108 0
	movl	$2, %esi
	.p2align 4,,10
	.p2align 3
.L2:
.LBE69:
.LBE68:
	.loc 1 125 0
	movl	%esi, %eax
	popq	%rbx
	.cfi_remember_state
	.cfi_restore 3
	.cfi_def_cfa_offset 8
	ret
.L35:
	.cfi_restore_state
.LBB81:
.LBB80:
	.loc 1 105 0
	movl	$1, _ZZ15instrset_detectvE4iset(%rip)
	.loc 1 106 0
	movb	$1, %sil
	jmp	.L2
.L5:
	.loc 1 110 0
	testb	$2, %ch
	jne	.L6
	.loc 1 109 0
	movl	$3, _ZZ15instrset_detectvE4iset(%rip)
	.loc 1 110 0
	movl	$3, %esi
	jmp	.L2
.L6:
	.loc 1 112 0
	testl	$524288, %ecx
	jne	.L7
	.loc 1 111 0
	movl	$4, _ZZ15instrset_detectvE4iset(%rip)
	.loc 1 112 0
	movl	$4, %esi
	jmp	.L2
.L7:
	.loc 1 114 0
	testl	$8388608, %ecx
	.loc 1 113 0
	movl	$5, _ZZ15instrset_detectvE4iset(%rip)
	.loc 1 114 0
	movl	$5, %esi
	je	.L2
	.loc 1 115 0
	testl	$1048576, %ecx
	je	.L2
	.loc 1 117 0
	testl	$134217728, %ecx
	.loc 1 116 0
	movl	$6, _ZZ15instrset_detectvE4iset(%rip)
	.loc 1 117 0
	movb	$6, %sil
	je	.L2
.LBB74:
.LBB75:
	.loc 1 57 0
	xorl	%ecx, %ecx
#APP
# 57 "/home/romain/Dropbox/Perso/Mandelbrot_test/Vector-1.0/Vector/src/instrset_detect.cpp" 1
	xgetbv
# 0 "" 2
#NO_APP
.LBE75:
.LBE74:
	.loc 1 118 0
	andl	$6, %eax
	cmpq	$6, %rax
	jne	.L2
	.loc 1 119 0
	andl	$268435456, %edi
	je	.L2
.LBB76:
.LBB77:
	.loc 1 26 0
	movb	$7, %al
.LBE77:
.LBE76:
	.loc 1 120 0
	movl	$7, _ZZ15instrset_detectvE4iset(%rip)
	.loc 1 122 0
	movb	$7, %sil
.LBB79:
.LBB78:
	.loc 1 26 0
#APP
# 26 "/home/romain/Dropbox/Perso/Mandelbrot_test/Vector-1.0/Vector/src/instrset_detect.cpp" 1
	cpuid
# 0 "" 2
#NO_APP
.LBE78:
.LBE79:
	.loc 1 122 0
	andb	$32, %bl
	je	.L2
	.loc 1 123 0
	movl	$8, _ZZ15instrset_detectvE4iset(%rip)
	.loc 1 124 0
	movb	$8, %sil
	jmp	.L2
.LBE80:
.LBE81:
	.cfi_endproc
.LFE525:
	.size	_Z15instrset_detectv, .-_Z15instrset_detectv
	.p2align 4,,15
	.globl	_Z7hasFMA3v
	.type	_Z7hasFMA3v, @function
_Z7hasFMA3v:
.LFB526:
	.loc 1 128 0
	.cfi_startproc
	pushq	%rbx
	.cfi_def_cfa_offset 16
	.cfi_offset 3, -16
.LBB88:
	.loc 1 129 0
	call	_Z15instrset_detectv@PLT
.LVL0:
	xorl	%ecx, %ecx
	cmpl	$6, %eax
	jle	.L37
.LVL1:
.LBE88:
.LBB89:
.LBB90:
.LBB91:
.LBB92:
	.loc 1 26 0
	xorl	%ecx, %ecx
	movl	$1, %eax
#APP
# 26 "/home/romain/Dropbox/Perso/Mandelbrot_test/Vector-1.0/Vector/src/instrset_detect.cpp" 1
	cpuid
# 0 "" 2
.LVL2:
#NO_APP
.LBE92:
.LBE91:
	.loc 1 132 0
	shrl	$12, %ecx
.LVL3:
	andl	$1, %ecx
.LVL4:
.L37:
.LBE90:
.LBE89:
	.loc 1 133 0
	movl	%ecx, %eax
	popq	%rbx
	.cfi_def_cfa_offset 8
	ret
	.cfi_endproc
.LFE526:
	.size	_Z7hasFMA3v, .-_Z7hasFMA3v
	.p2align 4,,15
	.globl	_Z7hasFMA4v
	.type	_Z7hasFMA4v, @function
_Z7hasFMA4v:
.LFB527:
	.loc 1 136 0
	.cfi_startproc
	pushq	%rbx
	.cfi_def_cfa_offset 16
	.cfi_offset 3, -16
.LBB99:
	.loc 1 137 0
	call	_Z15instrset_detectv@PLT
.LVL5:
	xorl	%ecx, %ecx
	cmpl	$6, %eax
	jle	.L41
.LVL6:
.LBE99:
.LBB100:
.LBB101:
.LBB102:
.LBB103:
	.loc 1 26 0
	xorl	%ecx, %ecx
	movl	$-2147483647, %eax
#APP
# 26 "/home/romain/Dropbox/Perso/Mandelbrot_test/Vector-1.0/Vector/src/instrset_detect.cpp" 1
	cpuid
# 0 "" 2
.LVL7:
#NO_APP
.LBE103:
.LBE102:
	.loc 1 140 0
	shrl	$16, %ecx
.LVL8:
	andl	$1, %ecx
.LVL9:
.L41:
.LBE101:
.LBE100:
	.loc 1 141 0
	movl	%ecx, %eax
	popq	%rbx
	.cfi_def_cfa_offset 8
	ret
	.cfi_endproc
.LFE527:
	.size	_Z7hasFMA4v, .-_Z7hasFMA4v
	.p2align 4,,15
	.globl	_Z6hasXOPv
	.type	_Z6hasXOPv, @function
_Z6hasXOPv:
.LFB528:
	.loc 1 144 0
	.cfi_startproc
	pushq	%rbx
	.cfi_def_cfa_offset 16
	.cfi_offset 3, -16
.LBB110:
	.loc 1 145 0
	call	_Z15instrset_detectv@PLT
.LVL10:
	xorl	%ecx, %ecx
	cmpl	$6, %eax
	jle	.L45
.LVL11:
.LBE110:
.LBB111:
.LBB112:
.LBB113:
.LBB114:
	.loc 1 26 0
	xorl	%ecx, %ecx
	movl	$-2147483647, %eax
#APP
# 26 "/home/romain/Dropbox/Perso/Mandelbrot_test/Vector-1.0/Vector/src/instrset_detect.cpp" 1
	cpuid
# 0 "" 2
.LVL12:
#NO_APP
.LBE114:
.LBE113:
	.loc 1 148 0
	shrl	$11, %ecx
.LVL13:
	andl	$1, %ecx
.LVL14:
.L45:
.LBE112:
.LBE111:
	.loc 1 149 0
	movl	%ecx, %eax
	popq	%rbx
	.cfi_def_cfa_offset 8
	ret
	.cfi_endproc
.LFE528:
	.size	_Z6hasXOPv, .-_Z6hasXOPv
	.data
	.align 16
	.type	_ZZ15instrset_detectvE4iset, @object
	.size	_ZZ15instrset_detectvE4iset, 4
_ZZ15instrset_detectvE4iset:
	.long	-1
	.text
.Letext0:
	.file 2 "/usr/include/sys/types.h"
	.file 3 "/usr/include/stdint.h"
	.section	.note.GNU-stack,"",@progbits
