	.file	"Mandelbrot.ltrans4.o"
	.text
.Ltext0:
	.align 2
	.p2align 4,,15
	.globl	_ZN3tbb10interface68internal9start_forINS_13blocked_rangeIjEE10ker_doubleNS_20affinity_partitionerEE7executeEv.local.42
	.hidden	_ZN3tbb10interface68internal9start_forINS_13blocked_rangeIjEE10ker_doubleNS_20affinity_partitionerEE7executeEv.local.42
	.type	_ZN3tbb10interface68internal9start_forINS_13blocked_rangeIjEE10ker_doubleNS_20affinity_partitionerEE7executeEv.local.42, @function
_ZN3tbb10interface68internal9start_forINS_13blocked_rangeIjEE10ker_doubleNS_20affinity_partitionerEE7executeEv.local.42:
.LFB14:
	.file 1 "/opt/intel/composer_xe_2013.2.146/tbb/include/tbb/parallel_for.h"
	.loc 1 106 0
	.cfi_startproc
.LVL0:
	pushq	%r15
	.cfi_def_cfa_offset 16
	.cfi_offset 15, -16
	pushq	%r14
	.cfi_def_cfa_offset 24
	.cfi_offset 14, -24
	pushq	%r13
	.cfi_def_cfa_offset 32
	.cfi_offset 13, -32
	movq	%rdi, %r13
	pushq	%r12
	.cfi_def_cfa_offset 40
	.cfi_offset 12, -40
	pushq	%rbp
	.cfi_def_cfa_offset 48
	.cfi_offset 6, -48
	pushq	%rbx
	.cfi_def_cfa_offset 56
	.cfi_offset 3, -56
	subq	$248, %rsp
	.cfi_def_cfa_offset 304
.LBB286:
.LBB287:
	.file 2 "/opt/intel/composer_xe_2013.2.146/tbb/include/tbb/partitioner.h"
	.loc 2 297 0
	cmpq	$0, 88(%rdi)
	jne	.L3
	.loc 2 299 0
	cmpb	$0, -11(%rdi)
	.loc 2 298 0
	movq	$1, 88(%rdi)
.LVL1:
	.loc 2 299 0
	jns	.L3
.LVL2:
.LBB288:
.LBB289:
.LBB290:
.LBB291:
.LBB292:
	.file 3 "/opt/intel/composer_xe_2013.2.146/tbb/include/tbb/task.h"
	.loc 3 728 0
	movq	-32(%rdi), %rax
.LVL3:
.LBE292:
.LBE291:
.LBB293:
.LBB294:
.LBB295:
.LBB296:
	.file 4 "/opt/intel/composer_xe_2013.2.146/tbb/include/tbb/tbb_machine.h"
	.loc 4 584 0
	.loc 4 585 0
	movb	$1, 8(%rax)
.LBE296:
.LBE295:
.LBE294:
.LBE293:
.LBE290:
	.loc 2 308 0
	addb	$1, 96(%rdi)
.LVL4:
.L3:
.LBE289:
.LBE288:
.LBE287:
.LBE286:
.LBB297:
.LBB298:
.LBB299:
.LBB300:
	.file 5 "/usr/lib/gcc/x86_64-redhat-linux/4.7.2/../../../../include/c++/4.7.2/bits/locale_facets.h"
	.loc 5 1078 0
	movl	8(%r13), %edx
	movl	12(%r13), %ebx
.LBE300:
.LBE299:
.LBB433:
.LBB434:
	.loc 3 728 0
	movq	-32(%r13), %rbp
.LVL5:
.LBE434:
.LBE433:
.LBB435:
.LBB303:
.LBB301:
.LBB302:
	.file 6 "/opt/intel/composer_xe_2013.2.146/tbb/include/tbb/blocked_range.h"
	.loc 6 71 0
	movl	%edx, %eax
	subl	%ebx, %eax
.LBE302:
.LBE301:
.LBE303:
	.loc 2 236 0
	cmpq	%rax, 16(%r13)
	jae	.L5
.LBB304:
	.loc 2 237 0
	cmpq	$1, 88(%r13)
.LBE304:
.LBE435:
.LBE298:
.LBE297:
	.loc 1 108 0
	leaq	88(%r13), %r14
.LVL6:
.LBB686:
.LBB682:
.LBB436:
.LBB430:
	.loc 2 237 0
	jbe	.L6
.LBE430:
.LBE436:
.LBE682:
.LBE686:
	.loc 1 108 0
	leaq	8(%r13), %rbx
.LVL7:
.L11:
.LBB687:
.LBB683:
.LBB437:
.LBB431:
.LBB305:
.LBB306:
.LBB307:
.LBB308:
.LBB309:
.LBB310:
.LBB311:
	.loc 3 933 0
	movl	$16, %esi
	movq	%r13, %rdi
	call	_ZNK3tbb8internal27allocate_continuation_proxy8allocateEm@PLT
.LVL8:
.LBE311:
.LBE310:
.LBB313:
.LBB314:
.LBB315:
.LBB316:
	.loc 3 522 0
	movb	$1, -11(%rax)
.LBE316:
.LBE315:
.LBE314:
.LBE313:
.LBB327:
.LBB312:
	.loc 3 933 0
	movq	%rax, %rbp
.LVL9:
.LBE312:
.LBE327:
.LBB328:
.LBB325:
	.loc 2 110 0
	leaq	16+_ZTVN3tbb10interface68internal9flag_taskE.local.147(%rip), %rax
.LVL10:
	movq	%rax, 0(%rbp)
.LVL11:
.LBB317:
.LBB318:
.LBB319:
.LBB320:
	.loc 4 584 0
.LBE320:
.LBE319:
.LBE318:
.LBE317:
.LBE325:
.LBE328:
.LBE309:
.LBE308:
.LBB331:
.LBB332:
	.loc 3 941 0
	movl	$120, %esi
.LBE332:
.LBE331:
.LBB335:
.LBB330:
.LBB329:
.LBB326:
.LBB324:
.LBB323:
.LBB322:
.LBB321:
	.loc 4 585 0
	movb	$0, 8(%rbp)
.LVL12:
.LBE321:
.LBE322:
.LBE323:
.LBE324:
.LBE326:
.LBE329:
.LBE330:
.LBE335:
.LBB336:
.LBB337:
	.loc 3 652 0
	movq	$2, -24(%rbp)
.LBE337:
.LBE336:
.LBB338:
.LBB339:
	.loc 3 735 0
	movq	%rbp, -32(%r13)
.LVL13:
.LBE339:
.LBE338:
.LBB340:
.LBB333:
	.loc 3 941 0
	movq	%rbp, %rdi
	call	_ZNK3tbb8internal20allocate_child_proxy8allocateEm@PLT
.LVL14:
.LBE333:
.LBE340:
.LBB341:
.LBB342:
	.loc 1 58 0
	leaq	16+_ZTVN3tbb10interface68internal9start_forINS_13blocked_rangeIjEE10ker_doubleNS_20affinity_partitionerEEE.local.143(%rip), %rdx
.LBB343:
.LBB344:
	.loc 3 522 0
	movb	$1, -11(%rax)
.LBE344:
.LBE343:
.LBE342:
.LBE341:
.LBB386:
.LBB334:
	.loc 3 941 0
	movq	%rax, %rsi
.LVL15:
.LBE334:
.LBE386:
.LBB387:
.LBB384:
	.loc 1 58 0
	movq	%rdx, (%rax)
.LVL16:
.LBB345:
.LBB346:
	.loc 6 94 0
	movl	8(%r13), %eax
.LVL17:
	movl	%eax, 8(%rsi)
.LBE346:
	.loc 5 1078 0
	movl	12(%r13), %edx
.LVL18:
.LBB349:
.LBB347:
	.loc 6 107 0
	movl	8(%r13), %eax
	subl	%edx, %eax
	shrl	%eax
	addl	%edx, %eax
.LVL19:
.LBE347:
.LBE349:
.LBE345:
.LBB352:
.LBB353:
.LBB354:
.LBB355:
	.loc 2 291 0
	movq	88(%r13), %rdx
.LBE355:
.LBE354:
.LBE353:
.LBE352:
.LBB375:
.LBB350:
.LBB348:
	.loc 6 108 0
	movl	%eax, 8(%r13)
.LBE348:
	.loc 6 94 0
	movl	%eax, 12(%rsi)
	movq	16(%r13), %rax
.LVL20:
.LBE350:
.LBE375:
.LBB376:
.LBB370:
.LBB361:
.LBB358:
	.loc 2 291 0
	shrq	%rdx
.LBE358:
.LBE361:
.LBE370:
.LBE376:
.LBB377:
.LBB351:
	.loc 6 94 0
	movq	%rax, 16(%rsi)
.LBE351:
.LBE377:
	.loc 1 58 0
	movq	24(%r13), %rax
	movq	%rax, 24(%rsi)
	movq	32(%r13), %rax
	movq	%rax, 32(%rsi)
	movq	40(%r13), %rax
	movq	%rax, 40(%rsi)
	movq	48(%r13), %rax
	movq	%rax, 48(%rsi)
	movq	56(%r13), %rax
	movq	%rax, 56(%rsi)
	movq	64(%r13), %rax
	movq	%rax, 64(%rsi)
	movq	72(%r13), %rax
	movq	%rax, 72(%rsi)
	movq	80(%r13), %rax
.LBB378:
.LBB371:
.LBB362:
.LBB359:
	.loc 2 291 0
	movq	%rdx, 88(%rsi)
.LBE359:
.LBE362:
.LBE371:
.LBE378:
	.loc 1 58 0
	movq	%rax, 80(%rsi)
.LVL21:
.LBB379:
.LBB372:
.LBB363:
.LBB360:
	.loc 2 286 0
	movzbl	96(%r13), %eax
	movb	%al, 96(%rsi)
	.loc 2 292 0
	movq	88(%r13), %rax
	subq	%rdx, %rax
	movq	%rax, 88(%r13)
	.loc 2 293 0
	movq	88(%rsi), %rcx
	testq	%rcx, %rcx
	je	.L7
.LVL22:
	xorl	%edx, %edx
	divq	%rcx
.LVL23:
.LBB356:
.LBB357:
	.file 7 "/opt/intel/composer_xe_2013.2.146/tbb/include/tbb/machine/gcc_ia32_common.h"
	.loc 7 31 0
#APP
# 31 "/opt/intel/composer_xe_2013.2.146/tbb/include/tbb/machine/gcc_ia32_common.h" 1
	bsr %rax,%rax
# 0 "" 2
.LVL24:
#NO_APP
.LBE357:
.LBE356:
	.loc 2 293 0
	addb	%al, 96(%r13)
.LVL25:
.L7:
.LBE360:
.LBE363:
	.loc 2 368 0
	movl	104(%r13), %eax
	.loc 2 366 0
	movq	112(%r13), %rdx
	.loc 2 368 0
	movl	%eax, 104(%rsi)
	.loc 2 369 0
	movl	108(%r13), %eax
	.loc 2 366 0
	movq	%rdx, 112(%rsi)
	.loc 2 369 0
	movl	%eax, 104(%r13)
.LBE372:
	.loc 5 1078 0
	movl	104(%rsi), %ecx
.LBB373:
	.loc 2 369 0
	movl	%eax, 100(%rsi)
.LVL26:
.LBB364:
.LBB365:
	.loc 2 347 0
	movl	%ecx, %edi
	subl	%eax, %edi
	movl	%edi, %eax
	shrl	%eax
.LVL27:
	.loc 2 349 0
	movl	%eax, %edi
	andl	$-16, %edi
	cmpl	$17, %eax
	cmovae	%edi, %eax
.LVL28:
	.loc 2 350 0
	subl	%eax, %ecx
	movl	%ecx, 108(%rsi)
.LVL29:
.LBE365:
.LBE364:
.LBE373:
	.loc 5 1078 0
	movl	104(%r13), %ecx
.LVL30:
.LBB374:
.LBB366:
.LBB367:
	.loc 2 347 0
	movl	%ecx, %eax
.LVL31:
	subl	100(%r13), %eax
	shrl	%eax
.LVL32:
	.loc 2 349 0
	movl	%eax, %edi
.LVL33:
	andl	$-16, %edi
	cmpl	$17, %eax
	cmovae	%edi, %eax
.LVL34:
	.loc 2 350 0
	subl	%eax, %ecx
.LBE367:
.LBE366:
	.loc 2 371 0
	movzbl	97(%r13), %eax
.LVL35:
.LBB369:
.LBB368:
	.loc 2 350 0
	movl	%ecx, 108(%r13)
.LBE368:
.LBE369:
	.loc 2 371 0
	movb	%al, 97(%rsi)
.LBE374:
.LBE379:
.LBE384:
	.loc 5 1078 0
	movl	100(%rsi), %eax
.LVL36:
.LBB385:
.LBB380:
.LBB381:
	.loc 2 374 0
	cmpl	104(%rsi), %eax
	jae	.L10
	.loc 2 375 0
	movzwl	(%rdx,%rax,2), %eax
.LVL37:
.LBB382:
.LBB383:
	.loc 3 780 0
	movw	%ax, -10(%rsi)
.LVL38:
.L10:
.LBE383:
.LBE382:
.LBE381:
.LBE380:
.LBE385:
.LBE387:
.LBB388:
.LBB389:
	.loc 3 895 0
	movq	-40(%rsi), %rdi
.LVL39:
	leaq	-8(%rsi), %rdx
	movq	(%rdi), %rax
	call	*(%rax)
.LVL40:
.LBE389:
.LBE388:
.LBE307:
.LBE306:
.LBE305:
.LBB390:
.LBB391:
.LBB392:
	.loc 6 71 0
	movl	(%rbx), %eax
	subl	4(%rbx), %eax
.LBE392:
.LBE391:
.LBE390:
	.loc 2 238 0
	cmpq	%rax, 8(%rbx)
	jb	.L143
.LVL41:
.L6:
.LBB393:
	.loc 2 241 0
	cmpl	$1, -24(%rbp)
	jle	.L12
.LVL42:
.LBB394:
.LBB395:
.LBB396:
.LBB397:
	.loc 3 933 0
	movl	$16, %esi
	movq	%r13, %rdi
	call	_ZNK3tbb8internal27allocate_continuation_proxy8allocateEm@PLT
.LVL43:
.LBE397:
.LBE396:
.LBB399:
.LBB400:
	.loc 2 110 0
	leaq	16+_ZTVN3tbb10interface68internal9flag_taskE.local.147(%rip), %r9
.LBE400:
.LBE399:
.LBB408:
.LBB398:
	.loc 3 933 0
	movq	%rax, %rbp
.LVL44:
.LBE398:
.LBE408:
.LBB409:
.LBB407:
.LBB401:
.LBB402:
	.loc 3 522 0
	movb	$1, -11(%rax)
.LBE402:
.LBE401:
	.loc 2 110 0
	movq	%r9, (%rax)
.LVL45:
.LBB403:
.LBB404:
.LBB405:
.LBB406:
	.loc 4 584 0
	.loc 4 585 0
	movb	$0, 8(%rax)
.LVL46:
.LBE406:
.LBE405:
.LBE404:
.LBE403:
.LBE407:
.LBE409:
.LBE395:
.LBE394:
.LBB410:
.LBB411:
	.loc 3 735 0
	movq	%rax, -32(%r13)
.LVL47:
.L12:
.LBE411:
.LBE410:
.LBB412:
.LBB413:
	.loc 3 941 0
	movl	$8, %esi
	movq	%rbp, %rdi
.LBE413:
.LBE412:
.LBB415:
.LBB416:
	.loc 3 652 0
	movq	$2, -24(%rbp)
.LVL48:
.LBE416:
.LBE415:
.LBB417:
.LBB414:
	.loc 3 941 0
	call	_ZNK3tbb8internal20allocate_child_proxy8allocateEm@PLT
.LVL49:
.LBE414:
.LBE417:
.LBB418:
.LBB419:
	.loc 3 895 0
	movq	-40(%rax), %rdi
.LBE419:
.LBE418:
.LBB422:
.LBB423:
	.loc 2 127 0
	leaq	16+_ZTVN3tbb10interface68internal11signal_taskE.local.148(%rip), %rdx
.LBB424:
.LBB425:
	.loc 3 522 0
	movb	$1, -11(%rax)
.LBE425:
.LBE424:
.LBE423:
.LBE422:
.LBB427:
.LBB420:
	.loc 3 895 0
	movq	%rax, %rsi
.LBE420:
.LBE427:
.LBB428:
.LBB426:
	.loc 2 127 0
	movq	%rdx, (%rax)
.LVL50:
.LBE426:
.LBE428:
.LBB429:
.LBB421:
	.loc 3 895 0
	leaq	-8(%rax), %rdx
	movq	(%rdi), %rcx
	call	*(%rcx)
.LVL51:
.LBE421:
.LBE429:
.LBE393:
.LBE431:
.LBE437:
.LBB438:
.LBB439:
	.loc 5 1078 0
	movl	8(%r13), %edx
	movl	12(%r13), %ebx
.LBB440:
.LBB441:
	.loc 6 71 0
	movl	%edx, %eax
	subl	%ebx, %eax
.LBE441:
.LBE440:
.LBE439:
	.loc 2 250 0
	cmpq	%rax, 16(%r13)
	jae	.L5
.LVL52:
.LBE438:
.LBE683:
	.loc 5 1078 0
	movzbl	96(%r13), %edi
.LVL53:
.LBB684:
.LBB678:
	.loc 2 250 0
	testb	%dil, %dil
	je	.L5
.LVL54:
.LBB442:
.LBB443:
.LBB444:
	.loc 2 155 0
	movq	8(%r13), %rax
.LBE444:
.LBE443:
.LBB446:
.LBB447:
.LBB448:
.LBB449:
.LBB450:
.LBB451:
.LBB452:
.LBB453:
	.file 8 "/home/romain/Dropbox/Perso/Mandelbrot_test/Mandelbrot-0.1/include/Mandelbrot.hpp"
	.loc 8 324 0
	movsd	.LC1(%rip), %xmm6
.LBE453:
.LBE452:
.LBE451:
.LBE450:
.LBE449:
.LBE448:
.LBE447:
.LBE446:
.LBB494:
.LBB445:
	.loc 2 153 0
	movb	$0, 96(%rsp)
	movb	$0, 97(%rsp)
	.loc 2 155 0
	movl	$1, %edx
	.loc 2 153 0
	movb	$1, 98(%rsp)
	.loc 2 154 0
	movb	$0, 99(%rsp)
.LVL55:
	.loc 2 155 0
	movq	%rax, 112(%rsp)
	movq	16(%r13), %rax
	movq	%rax, 120(%rsp)
.LVL56:
.L90:
.LBE445:
.LBE494:
.LBB495:
.LBB496:
	.loc 2 165 0
	cmpb	$7, %dl
	ja	.L43
	movzbl	96(%rsp), %esi
	movzbl	%sil, %eax
	movzbl	99(%rsp,%rax), %eax
	cmpb	%dil, %al
	jae	.L43
.LVL57:
	movzbl	%sil, %ecx
	leaq	112(%rsp), %r9
.LVL58:
	movq	%rcx, %r8
	salq	$4, %r8
	addq	%r9, %r8
.LVL59:
.LBB497:
.LBB498:
.LBB499:
	.loc 6 71 0
	movl	(%r8), %r9d
.LVL60:
	subl	4(%r8), %r9d
.LBE499:
.LBE498:
.LBE497:
	.loc 2 165 0
	cmpq	%r9, 8(%r8)
	jae	.L43
.LBB502:
	.loc 2 169 0
	leaq	112(%rsp), %r8
.LVL61:
	jmp	.L136
.LVL62:
	.p2align 4,,10
	.p2align 3
.L145:
.LBE502:
	.loc 2 165 0
	cmpb	%dil, %al
	jae	.L43
	movq	%rcx, %r9
.LVL63:
	salq	$4, %rcx
	addq	%r8, %rcx
.LVL64:
.LBB507:
.LBB501:
.LBB500:
	.loc 6 71 0
	movl	(%rcx), %r10d
.LVL65:
	subl	4(%rcx), %r10d
.LBE500:
.LBE501:
.LBE507:
	.loc 2 165 0
	cmpq	%r10, 8(%rcx)
	jae	.L43
	movq	%r9, %rcx
.LVL66:
.L136:
.LBB508:
	.loc 2 168 0
	movzbl	%sil, %r10d
	.loc 2 169 0
	salq	$4, %rcx
	.loc 2 168 0
	leal	1(%r10), %r9d
	.loc 2 169 0
	addq	%r8, %rcx
	.loc 2 168 0
	andl	$7, %r9d
	movl	%r9d, %esi
.LVL67:
	movb	%r9b, 96(%rsp)
.LVL68:
	.loc 2 169 0
	movslq	%r9d, %r9
	salq	$4, %r9
.LVL69:
	addq	%r8, %r9
.LVL70:
	je	.L144
	movq	(%rcx), %rax
	movq	%rax, (%r9)
	movq	8(%rcx), %rax
	movq	%rax, 8(%r9)
.LVL71:
	.loc 2 171 0
	movzbl	96(%rsp), %eax
	salq	$4, %rax
	addq	%r8, %rax
.LVL72:
.L45:
.LBB503:
.LBB504:
	.loc 6 94 0
	movl	(%rax), %edx
	movl	%edx, (%rcx)
.LBE504:
	.loc 5 1078 0
	movl	4(%rax), %esi
.LVL73:
.LBB506:
.LBB505:
	.loc 6 107 0
	movl	(%rax), %edx
	subl	%esi, %edx
	shrl	%edx
	addl	%esi, %edx
.LVL74:
	.loc 6 108 0
	movl	%edx, (%rax)
.LBE505:
	.loc 6 94 0
	movq	8(%rax), %rax
.LVL75:
	movl	%edx, 4(%rcx)
	movzbl	96(%rsp), %esi
	movzbl	98(%rsp), %edx
.LVL76:
	movq	%rax, 8(%rcx)
	movslq	%r10d, %rcx
.LVL77:
	movzbl	99(%rsp,%rcx), %eax
.L46:
.LBE506:
.LBE503:
	.loc 2 172 0
	addl	$1, %eax
	.loc 2 173 0
	addl	$1, %edx
	.loc 2 172 0
	movb	%al, 99(%rsp,%rcx)
.LBE508:
	.loc 2 165 0
	cmpb	$7, %dl
.LBB509:
	.loc 2 172 0
	movzbl	%sil, %ecx
	movb	%al, 99(%rsp,%rcx)
	.loc 2 173 0
	movb	%dl, 98(%rsp)
.LBE509:
	.loc 2 165 0
	jbe	.L145
.LVL78:
.L43:
.LBE496:
.LBE495:
.LBB514:
.LBB515:
	.loc 2 382 0
	cmpb	$0, 9(%r14)
	jne	.L94
	.loc 2 383 0
	movl	16(%r14), %eax
	cmpl	%eax, 20(%r14)
	jb	.L48
.LVL79:
.LBB516:
.LBB517:
.LBB518:
.LBB519:
	.loc 3 728 0
	movq	-32(%r13), %rax
.LVL80:
.LBE519:
.LBE518:
.LBB520:
.LBB521:
.LBB522:
	.loc 4 579 0
	movzbl	8(%rax), %eax
.LVL81:
	.loc 4 580 0
.LVL82:
.LBE522:
.LBE521:
.LBE520:
	.loc 2 387 0
	testb	%al, %al
	je	.L140
	.loc 2 388 0
	addb	$1, 8(%r14)
	movzbl	98(%rsp), %edx
.LVL83:
.L48:
.LBE517:
.LBE516:
.LBE515:
.LBE514:
.LBB524:
.LBB525:
	.loc 2 257 0
	cmpb	$1, %dl
	ja	.L146
.LVL84:
.LBE525:
.LBB617:
.LBB618:
	.loc 2 190 0
	movzbl	96(%rsp), %eax
	movzbl	%al, %ecx
	salq	$4, %rcx
	leaq	112(%rsp,%rcx), %rcx
.LBE618:
.LBE617:
.LBB620:
	.loc 5 1078 0
	movq	%rcx, %r9
.LBE620:
.LBB623:
.LBB619:
	.loc 2 190 0
	movq	%rcx, 72(%rsp)
.LVL85:
.LBE619:
.LBE623:
.LBB624:
	.loc 5 1078 0
	movl	(%rcx), %ecx
.LVL86:
	movl	4(%r9), %r12d
.LBB621:
.LBB622:
	.loc 6 71 0
	movl	%ecx, %esi
	subl	%r12d, %esi
.LBE622:
.LBE621:
.LBE624:
	.loc 2 266 0
	cmpq	%rsi, 8(%r9)
	jb	.L56
.LVL87:
.L50:
.LBE524:
.LBB627:
.LBB493:
.LBB491:
.LBB489:
	.loc 8 317 0
	cmpl	%r12d, %ecx
.LBE489:
.LBE491:
	.loc 1 102 0
	leaq	24(%r13), %r15
.LVL88:
.LBB492:
.LBB490:
	.loc 8 317 0
	jbe	.L57
	movl	24(%r13), %eax
.LBB488:
.LBB485:
.LBB478:
	.loc 8 321 0
	xorpd	%xmm9, %xmm9
.LVL89:
	.p2align 4,,10
	.p2align 3
.L85:
.LBE478:
.LBE485:
	.loc 8 318 0
	movl	%r12d, %edx
.LBB486:
	.loc 8 319 0
	testl	%eax, %eax
.LBE486:
	.loc 8 318 0
	cvtsi2sdq	%rdx, %xmm7
	divsd	40(%r15), %xmm7
	addsd	16(%r15), %xmm7
.LVL90:
.LBB487:
	.loc 8 319 0
	je	.L60
	xorl	%ebx, %ebx
	leaq	80(%rsp), %rbp
.LBB479:
.LBB459:
.LBB460:
	.loc 8 337 0
	movss	.LC2(%rip), %xmm8
	jmp	.L84
.LVL91:
	.p2align 4,,10
	.p2align 3
.L62:
.LBE460:
	.loc 8 335 0
	movl	$255, %r8d
	xorl	%ecx, %ecx
	xorl	%edx, %edx
	xorl	%esi, %esi
.L141:
.LBB461:
	.loc 8 346 0
	movq	%rbp, %rdi
	movsd	%xmm6, 32(%rsp)
	movsd	%xmm7, 16(%rsp)
	movss	%xmm8, (%rsp)
	movsd	%xmm9, 48(%rsp)
	call	_ZN2sf5ColorC1Ehhhh@PLT
.LVL92:
	movq	56(%r15), %rdi
	movl	%ebx, %esi
	movq	%rbp, %rcx
	movl	%r12d, %edx
.LBE461:
.LBE459:
.LBE479:
	.loc 8 319 0
	addl	$1, %ebx
.LVL93:
.LBB480:
.LBB468:
.LBB462:
	.loc 8 346 0
	call	_ZN2sf5Image8SetPixelEjjRKNS_5ColorE@PLT
.LVL94:
.LBE462:
.LBE468:
.LBE480:
	.loc 8 319 0
	movl	(%r15), %eax
	movsd	32(%rsp), %xmm6
	movsd	16(%rsp), %xmm7
	movss	(%rsp), %xmm8
	cmpl	%eax, %ebx
	movsd	48(%rsp), %xmm9
	jae	.L147
.LVL95:
.L84:
.LBB481:
.LBB469:
	.loc 8 324 0
	movl	24(%r15), %edx
.LBE469:
	.loc 8 320 0
	movsd	32(%r15), %xmm1
	movsd	8(%r15), %xmm0
.LVL96:
.LBB470:
	.loc 8 324 0
	testl	%edx, %edx
	je	.L62
.LBE470:
	.loc 8 320 0
	movl	%ebx, %eax
	.loc 8 321 0
	movapd	%xmm9, %xmm4
	.loc 8 320 0
	cvtsi2sdq	%rax, %xmm5
	.loc 8 325 0
	xorl	%eax, %eax
	.loc 8 22 0
	movapd	%xmm9, %xmm3
	movapd	%xmm9, %xmm2
	.loc 8 320 0
	divsd	%xmm1, %xmm5
	addsd	%xmm0, %xmm5
	.loc 8 322 0
	movapd	%xmm9, %xmm0
.LVL97:
	.p2align 4,,10
	.p2align 3
.L63:
.LBB471:
.LBB454:
	.loc 8 329 0
	mulsd	%xmm4, %xmm0
.LVL98:
	.loc 8 328 0
	movapd	%xmm5, %xmm1
.LBE454:
	.loc 8 324 0
	addl	$1, %eax
.LVL99:
.LBB455:
	.loc 8 328 0
	subsd	%xmm3, %xmm1
.LBE455:
	.loc 8 324 0
	cmpl	%edx, %eax
.LBB456:
	.loc 8 329 0
	addsd	%xmm0, %xmm0
	.loc 8 328 0
	addsd	%xmm2, %xmm1
.LVL100:
	.loc 8 329 0
	addsd	%xmm7, %xmm0
.LVL101:
.LBE456:
	.loc 8 324 0
	je	.L62
.LVL102:
	.loc 8 22 0
	movapd	%xmm1, %xmm2
	movapd	%xmm0, %xmm3
	mulsd	%xmm1, %xmm2
.LVL103:
	mulsd	%xmm0, %xmm3
.LBB457:
.LBB458:
	.loc 8 27 0
	movapd	%xmm2, %xmm4
.LVL104:
	addsd	%xmm3, %xmm4
.LBE458:
.LBE457:
	.loc 8 324 0
	comisd	%xmm4, %xmm6
	ja	.L103
.LBE471:
.LBB472:
.LBB463:
	.loc 8 337 0
	cvtsi2ssq	%rax, %xmm0
.LVL105:
	cvtsi2ssq	%rdx, %xmm1
.LVL106:
	mulss	%xmm8, %xmm0
	divss	%xmm1, %xmm0
	.loc 8 338 0
	movsd	.LC3(%rip), %xmm1
	.loc 8 337 0
	unpcklps	%xmm0, %xmm0
	cvtps2pd	%xmm0, %xmm0
.LVL107:
	.loc 8 338 0
	comisd	%xmm0, %xmm1
	jbe	.L148
	.loc 8 346 0
	movq	48(%r15), %rax
.LVL108:
	movl	$255, %r8d
	movl	8(%rax), %edx
	cvtsi2sdq	%rdx, %xmm1
	movl	4(%rax), %edx
	movl	(%rax), %eax
	mulsd	%xmm0, %xmm1
	cvttsd2si	%xmm1, %ecx
	cvtsi2sdq	%rdx, %xmm1
	movzbl	%cl, %ecx
	mulsd	%xmm0, %xmm1
	cvttsd2si	%xmm1, %edx
	cvtsi2sdq	%rax, %xmm1
	movzbl	%dl, %edx
	mulsd	%xmm0, %xmm1
	cvttsd2si	%xmm1, %esi
	movzbl	%sil, %esi
	jmp	.L141
.LVL109:
	.p2align 4,,10
	.p2align 3
.L103:
.LBE463:
.LBE472:
.LBB473:
	.loc 8 328 0
	movapd	%xmm1, %xmm4
	jmp	.L63
.LVL110:
	.p2align 4,,10
	.p2align 3
.L148:
.LBE473:
.LBB474:
.LBB464:
	.loc 8 355 0
	movq	48(%r15), %rax
.LVL111:
	movl	$255, %r8d
	movq	%rbp, %rdi
	movl	8(%rax), %edx
	movl	%edx, %ecx
	sall	$8, %ecx
	subl	%edx, %ecx
	movl	4(%rax), %edx
	movl	(%rax), %eax
	cvtsi2sdq	%rcx, %xmm1
	movsd	%xmm6, 32(%rsp)
	movl	%edx, %esi
	movsd	%xmm7, 16(%rsp)
	sall	$8, %esi
	movss	%xmm8, (%rsp)
	subl	%edx, %esi
	movsd	%xmm9, 48(%rsp)
	subsd	%xmm0, %xmm1
	cvttsd2si	%xmm1, %ecx
	cvtsi2sdq	%rsi, %xmm1
	movl	%eax, %esi
	sall	$8, %esi
	subl	%eax, %esi
	movzbl	%cl, %ecx
	subsd	%xmm0, %xmm1
	cvttsd2si	%xmm1, %edx
	cvtsi2sdq	%rsi, %xmm1
	movzbl	%dl, %edx
	subsd	%xmm0, %xmm1
	cvttsd2si	%xmm1, %esi
	movzbl	%sil, %esi
	call	_ZN2sf5ColorC1Ehhhh@PLT
.LVL112:
	movq	56(%r15), %rdi
	movl	%ebx, %esi
	movq	%rbp, %rcx
	movl	%r12d, %edx
.LBE464:
.LBE474:
.LBE481:
	.loc 8 319 0
	addl	$1, %ebx
.LVL113:
.LBB482:
.LBB475:
.LBB465:
	.loc 8 355 0
	call	_ZN2sf5Image8SetPixelEjjRKNS_5ColorE@PLT
.LVL114:
.LBE465:
.LBE475:
.LBE482:
	.loc 8 319 0
	movl	(%r15), %eax
.LBB483:
.LBB476:
.LBB466:
	.loc 8 355 0
	movsd	48(%rsp), %xmm9
	movss	(%rsp), %xmm8
	movsd	16(%rsp), %xmm7
.LBE466:
.LBE476:
.LBE483:
	.loc 8 319 0
	cmpl	%eax, %ebx
.LBB484:
.LBB477:
.LBB467:
	.loc 8 355 0
	movsd	32(%rsp), %xmm6
.LBE467:
.LBE477:
.LBE484:
	.loc 8 319 0
	jb	.L84
.LVL115:
.L147:
	movq	72(%rsp), %r9
	movl	(%r9), %ecx
.LVL116:
.L60:
.LBE487:
.LBE488:
	.loc 8 317 0
	addl	$1, %r12d
.LVL117:
	cmpl	%ecx, %r12d
	jb	.L85
	movzbl	96(%rsp), %eax
.L57:
.LVL118:
.LBE490:
.LBE492:
.LBE493:
.LBE627:
.LBB628:
.LBB629:
	.loc 2 179 0
	movzbl	98(%rsp), %edx
	.loc 2 180 0
	addl	$7, %eax
	andl	$7, %eax
	movb	%al, 96(%rsp)
	.loc 2 179 0
	subl	$1, %edx
	movb	%dl, 98(%rsp)
.LVL119:
.L56:
.LBE629:
.LBE628:
	.loc 2 254 0
	testb	%dl, %dl
	jne	.L149
.LVL120:
.L106:
.LBE442:
.LBE678:
.LBE684:
.LBE687:
	.loc 1 110 0
	addq	$248, %rsp
	.cfi_remember_state
	.cfi_def_cfa_offset 56
	xorl	%eax, %eax
	popq	%rbx
	.cfi_def_cfa_offset 48
	popq	%rbp
	.cfi_def_cfa_offset 40
	popq	%r12
	.cfi_def_cfa_offset 32
	popq	%r13
	.cfi_def_cfa_offset 24
.LVL121:
	popq	%r14
	.cfi_def_cfa_offset 16
	popq	%r15
	.cfi_def_cfa_offset 8
	ret
.LVL122:
.L144:
	.cfi_restore_state
.LBB688:
.LBB685:
.LBB679:
.LBB637:
.LBB630:
.LBB512:
.LBB510:
	.loc 2 171 0
	testq	%rcx, %rcx
	jne	.L132
	movslq	%r10d, %rcx
.LVL123:
	jmp	.L46
.LVL124:
	.p2align 4,,10
	.p2align 3
.L94:
.LBE510:
.LBE512:
.LBE630:
.LBB631:
.LBB523:
	.loc 2 391 0
	movb	$0, 9(%r14)
.L140:
	movzbl	96(%rsp), %eax
	movzbl	%al, %edx
	salq	$4, %rdx
	leaq	112(%rsp,%rdx), %rdx
	movq	%rdx, 72(%rsp)
	movl	(%rdx), %ecx
	movl	4(%rdx), %r12d
	jmp	.L50
.LVL125:
.L146:
.LBE523:
.LBE631:
.LBB632:
.LBB625:
.LBB526:
.LBB527:
.LBB528:
.LBB529:
.LBB530:
	.loc 3 933 0
	movl	$16, %esi
	movq	%r13, %rdi
.LVL126:
	movsd	%xmm6, 32(%rsp)
	call	_ZNK3tbb8internal27allocate_continuation_proxy8allocateEm@PLT
.LVL127:
.LBE530:
.LBE529:
.LBB531:
.LBB532:
	.loc 2 110 0
	leaq	16+_ZTVN3tbb10interface68internal9flag_taskE.local.147(%rip), %rdx
.LBB533:
.LBB534:
	.loc 3 522 0
	movb	$1, -11(%rax)
.LBE534:
.LBE533:
	.loc 2 110 0
	movq	%rdx, (%rax)
.LVL128:
.LBB535:
.LBB536:
.LBB537:
.LBB538:
	.loc 4 584 0
.LBE538:
.LBE537:
.LBE536:
.LBE535:
.LBE532:
.LBE531:
.LBE528:
.LBE527:
.LBB546:
.LBB547:
	.loc 3 652 0
	movq	$2, -24(%rax)
.LBE547:
.LBE546:
.LBB548:
.LBB549:
	.loc 2 194 0
	movzbl	97(%rsp), %ebp
.LBE549:
.LBE548:
.LBB551:
.LBB552:
	.loc 3 941 0
	movl	$120, %esi
.LBE552:
.LBE551:
.LBB556:
.LBB545:
.LBB544:
.LBB543:
.LBB542:
.LBB541:
.LBB540:
.LBB539:
	.loc 4 585 0
	movb	$0, 8(%rax)
.LVL129:
.LBE539:
.LBE540:
.LBE541:
.LBE542:
.LBE543:
.LBE544:
.LBE545:
.LBE556:
.LBB557:
.LBB553:
	.loc 3 941 0
	movq	%rax, %rdi
.LBE553:
.LBE557:
.LBB558:
.LBB559:
	.loc 3 735 0
	movq	%rax, -32(%r13)
.LVL130:
.LBE559:
.LBE558:
.LBB560:
.LBB561:
	.loc 2 199 0
	movzbl	%bpl, %edx
	movzbl	99(%rsp,%rdx), %ebx
.LVL131:
.LBE561:
.LBE560:
.LBB562:
.LBB554:
	.loc 3 941 0
	call	_ZNK3tbb8internal20allocate_child_proxy8allocateEm@PLT
.LVL132:
.LBE554:
.LBE562:
.LBB563:
.LBB564:
	.loc 1 67 0
	leaq	16+_ZTVN3tbb10interface68internal9start_forINS_13blocked_rangeIjEE10ker_doubleNS_20affinity_partitionerEEE.local.143(%rip), %rdi
.LBB565:
.LBB566:
	.loc 3 522 0
	movb	$1, -11(%rax)
.LBE566:
.LBE565:
.LBE564:
.LBE563:
.LBB603:
.LBB555:
	.loc 3 941 0
	movq	%rax, %rsi
.LVL133:
.LBE555:
.LBE603:
.LBB604:
.LBB599:
	.loc 1 67 0
	movq	%rdi, (%rax)
.LBE599:
.LBE604:
.LBB605:
.LBB550:
	.loc 2 194 0
	movq	%rbp, %rax
.LVL134:
.LBE550:
.LBE605:
.LBB606:
.LBB600:
	.loc 1 67 0
	salq	$4, %rax
	movq	112(%rsp,%rax), %rdx
	movq	%rdx, 8(%rsi)
	movq	120(%rsp,%rax), %rax
.LBB567:
.LBB568:
.LBB569:
.LBB570:
	.loc 2 291 0
	movq	88(%r13), %rdx
.LBE570:
.LBE569:
.LBE568:
.LBE567:
	.loc 1 67 0
	movq	%rax, 16(%rsi)
	movq	24(%r13), %rax
.LBB590:
.LBB585:
.LBB576:
.LBB573:
	.loc 2 291 0
	shrq	%rdx
.LBE573:
.LBE576:
.LBE585:
.LBE590:
	.loc 1 67 0
	movq	%rax, 24(%rsi)
	movq	32(%r13), %rax
	movq	%rax, 32(%rsi)
	movq	40(%r13), %rax
	movq	%rax, 40(%rsi)
	movq	48(%r13), %rax
	movq	%rax, 48(%rsi)
	movq	56(%r13), %rax
	movq	%rax, 56(%rsi)
	movq	64(%r13), %rax
	movq	%rax, 64(%rsi)
	movq	72(%r13), %rax
	movq	%rax, 72(%rsi)
	movq	80(%r13), %rax
.LBB591:
.LBB586:
.LBB577:
.LBB574:
	.loc 2 291 0
	movq	%rdx, 88(%rsi)
.LBE574:
.LBE577:
.LBE586:
.LBE591:
	.loc 1 67 0
	movq	%rax, 80(%rsi)
.LVL135:
.LBB592:
.LBB587:
.LBB578:
.LBB575:
	.loc 2 286 0
	movzbl	96(%r13), %eax
	movb	%al, 96(%rsi)
	.loc 2 292 0
	movq	88(%r13), %rax
	.loc 2 293 0
	movsd	32(%rsp), %xmm6
	.loc 2 292 0
	subq	%rdx, %rax
	movq	%rax, 88(%r13)
	.loc 2 293 0
	movq	88(%rsi), %rcx
	testq	%rcx, %rcx
	je	.L52
.LVL136:
	xorl	%edx, %edx
	divq	%rcx
.LVL137:
.LBB571:
.LBB572:
	.loc 7 31 0
#APP
# 31 "/opt/intel/composer_xe_2013.2.146/tbb/include/tbb/machine/gcc_ia32_common.h" 1
	bsr %rax,%rax
# 0 "" 2
.LVL138:
#NO_APP
.LBE572:
.LBE571:
	.loc 2 293 0
	addb	%al, 96(%r13)
.LVL139:
.L52:
.LBE575:
.LBE578:
	.loc 2 368 0
	movl	104(%r13), %eax
	.loc 2 366 0
	movq	112(%r13), %rdx
	.loc 2 368 0
	movl	%eax, 104(%rsi)
	.loc 2 369 0
	movl	108(%r13), %eax
	.loc 2 366 0
	movq	%rdx, 112(%rsi)
	.loc 2 369 0
	movl	%eax, 104(%r13)
.LBE587:
	.loc 5 1078 0
	movl	104(%rsi), %ecx
.LBB588:
	.loc 2 369 0
	movl	%eax, 100(%rsi)
.LVL140:
.LBB579:
.LBB580:
	.loc 2 347 0
	movl	%ecx, %r9d
	subl	%eax, %r9d
	movl	%r9d, %eax
	shrl	%eax
.LVL141:
	.loc 2 349 0
	movl	%eax, %edi
	andl	$-16, %edi
	cmpl	$17, %eax
	cmovae	%edi, %eax
.LVL142:
	.loc 2 350 0
	subl	%eax, %ecx
	movl	%ecx, 108(%rsi)
.LVL143:
.LBE580:
.LBE579:
.LBE588:
	.loc 5 1078 0
	movl	104(%r13), %ecx
.LVL144:
.LBB589:
.LBB581:
.LBB582:
	.loc 2 347 0
	movl	%ecx, %eax
.LVL145:
	subl	100(%r13), %eax
	shrl	%eax
.LVL146:
	.loc 2 349 0
	movl	%eax, %edi
.LVL147:
	andl	$-16, %edi
	cmpl	$17, %eax
	cmovae	%edi, %eax
.LVL148:
	.loc 2 350 0
	subl	%eax, %ecx
.LBE582:
.LBE581:
	.loc 2 371 0
	movzbl	97(%r13), %eax
.LVL149:
.LBB584:
.LBB583:
	.loc 2 350 0
	movl	%ecx, 108(%r13)
.LBE583:
.LBE584:
	.loc 2 371 0
	movb	%al, 97(%rsi)
.LBE589:
.LBE592:
.LBE600:
	.loc 5 1078 0
	movl	100(%rsi), %eax
.LVL150:
.LBB601:
.LBB593:
.LBB594:
	.loc 2 374 0
	cmpl	104(%rsi), %eax
	jae	.L55
	.loc 2 375 0
	movzwl	(%rdx,%rax,2), %eax
.LVL151:
.LBB595:
.LBB596:
	.loc 3 780 0
	movw	%ax, -10(%rsi)
.LVL152:
.L55:
.LBE596:
.LBE595:
.LBE594:
.LBE593:
.LBE601:
.LBE606:
.LBB607:
.LBB608:
	.loc 3 895 0
	movq	-40(%rsi), %rdi
.LVL153:
.LBE608:
.LBE607:
.LBB610:
.LBB602:
.LBB597:
.LBB598:
	.loc 2 334 0
	subb	%bl, 96(%rsi)
.LVL154:
.LBE598:
.LBE597:
.LBE602:
.LBE610:
.LBB611:
.LBB609:
	.loc 3 895 0
	leaq	-8(%rsi), %rdx
	movq	(%rdi), %rax
	movsd	%xmm6, 32(%rsp)
	call	*(%rax)
.LVL155:
.LBE609:
.LBE611:
.LBB612:
.LBB613:
	.loc 2 185 0
	movzbl	98(%rsp), %edx
	.loc 2 186 0
	movzbl	97(%rsp), %eax
	movsd	32(%rsp), %xmm6
.LVL156:
	.loc 2 185 0
	subl	$1, %edx
	.loc 2 186 0
	addl	$1, %eax
	andl	$7, %eax
.LBE613:
.LBE612:
.LBE526:
.LBE625:
.LBE632:
	.loc 2 254 0
	testb	%dl, %dl
.LBB633:
.LBB626:
.LBB616:
.LBB615:
.LBB614:
	.loc 2 185 0
	movb	%dl, 98(%rsp)
	.loc 2 186 0
	movb	%al, 97(%rsp)
.LBE614:
.LBE615:
.LBE616:
.LBE626:
.LBE633:
	.loc 2 254 0
	je	.L106
.LVL157:
.L149:
.LBB634:
.LBB635:
	.loc 3 811 0
	movq	-56(%r13), %rdi
	movsd	%xmm6, 32(%rsp)
	call	_ZNK3tbb18task_group_context28is_group_execution_cancelledEv@PLT
.LVL158:
.LBE635:
.LBE634:
	.loc 2 254 0
	testb	%al, %al
	movsd	32(%rsp), %xmm6
	jne	.L106
	movzbl	96(%r13), %edi
	movzbl	98(%rsp), %edx
	jmp	.L90
.LVL159:
.L143:
.LBE637:
.LBE679:
.LBB680:
.LBB432:
	.loc 2 238 0
	cmpq	$1, (%r14)
	ja	.L11
	jmp	.L6
.LVL160:
.L5:
.LBE432:
.LBE680:
.LBB681:
.LBB638:
.LBB639:
.LBB640:
.LBB641:
	.loc 8 317 0
	cmpl	%edx, %ebx
.LBE641:
.LBE640:
	.loc 1 102 0
	leaq	24(%r13), %r14
.LVL161:
.LBB676:
.LBB675:
	.loc 8 317 0
	jae	.L106
	movl	24(%r13), %eax
.LBB642:
.LBB643:
.LBB644:
.LBB645:
	.loc 8 324 0
	movsd	.LC1(%rip), %xmm5
.LVL162:
.L41:
.LBE645:
.LBE644:
.LBE643:
	.loc 8 318 0
	movl	%ebx, %ecx
.LBB673:
	.loc 8 319 0
	testl	%eax, %eax
.LBE673:
	.loc 8 318 0
	cvtsi2sdq	%rcx, %xmm7
	divsd	40(%r14), %xmm7
	addsd	16(%r14), %xmm7
.LVL163:
.LBB674:
	.loc 8 319 0
	je	.L16
	xorl	%r12d, %r12d
	leaq	80(%rsp), %rbp
.LBB668:
.LBB651:
.LBB652:
	.loc 8 337 0
	movss	.LC2(%rip), %xmm8
	jmp	.L40
.LVL164:
	.p2align 4,,10
	.p2align 3
.L18:
.LBE652:
	.loc 8 335 0
	movl	$255, %r8d
	xorl	%ecx, %ecx
	xorl	%edx, %edx
	xorl	%esi, %esi
.L139:
.LBB653:
	.loc 8 346 0
	movq	%rbp, %rdi
	movsd	%xmm5, 48(%rsp)
	movsd	%xmm7, 16(%rsp)
	movss	%xmm8, (%rsp)
	call	_ZN2sf5ColorC1Ehhhh@PLT
.LVL165:
	movq	56(%r14), %rdi
	movl	%r12d, %esi
	movq	%rbp, %rcx
	movl	%ebx, %edx
.LBE653:
.LBE651:
.LBE668:
	.loc 8 319 0
	addl	$1, %r12d
.LVL166:
.LBB669:
.LBB659:
.LBB654:
	.loc 8 346 0
	call	_ZN2sf5Image8SetPixelEjjRKNS_5ColorE@PLT
.LVL167:
.LBE654:
.LBE659:
.LBE669:
	.loc 8 319 0
	movl	(%r14), %eax
	movsd	48(%rsp), %xmm5
	movsd	16(%rsp), %xmm7
	movss	(%rsp), %xmm8
	cmpl	%eax, %r12d
	jae	.L150
.LVL168:
.L40:
.LBB670:
.LBB660:
	.loc 8 324 0
	movl	24(%r14), %ecx
.LBE660:
	.loc 8 320 0
	movsd	32(%r14), %xmm1
	movsd	8(%r14), %xmm0
.LVL169:
.LBB661:
	.loc 8 324 0
	testl	%ecx, %ecx
	je	.L18
.LBE661:
	.loc 8 320 0
	movl	%r12d, %eax
	.loc 8 321 0
	xorpd	%xmm4, %xmm4
	.loc 8 320 0
	cvtsi2sdq	%rax, %xmm6
	.loc 8 325 0
	xorl	%eax, %eax
	.loc 8 22 0
	movapd	%xmm4, %xmm3
	movapd	%xmm4, %xmm2
	.loc 8 320 0
	divsd	%xmm1, %xmm6
	addsd	%xmm0, %xmm6
	.loc 8 322 0
	movapd	%xmm4, %xmm0
.LVL170:
	.p2align 4,,10
	.p2align 3
.L19:
.LBB662:
.LBB646:
	.loc 8 329 0
	mulsd	%xmm4, %xmm0
.LVL171:
	.loc 8 328 0
	movapd	%xmm6, %xmm1
.LBE646:
	.loc 8 324 0
	addl	$1, %eax
.LVL172:
.LBB647:
	.loc 8 328 0
	subsd	%xmm3, %xmm1
.LBE647:
	.loc 8 324 0
	cmpl	%ecx, %eax
.LBB648:
	.loc 8 329 0
	addsd	%xmm0, %xmm0
	.loc 8 328 0
	addsd	%xmm2, %xmm1
.LVL173:
	.loc 8 329 0
	addsd	%xmm7, %xmm0
.LVL174:
.LBE648:
	.loc 8 324 0
	je	.L18
.LVL175:
	.loc 8 22 0
	movapd	%xmm1, %xmm2
	movapd	%xmm0, %xmm3
	mulsd	%xmm1, %xmm2
.LVL176:
	mulsd	%xmm0, %xmm3
.LBB649:
.LBB650:
	.loc 8 27 0
	movapd	%xmm2, %xmm4
.LVL177:
	addsd	%xmm3, %xmm4
.LBE650:
.LBE649:
	.loc 8 324 0
	comisd	%xmm4, %xmm5
	ja	.L101
.LBE662:
.LBB663:
.LBB655:
	.loc 8 337 0
	cvtsi2ssq	%rax, %xmm0
.LVL178:
	cvtsi2ssq	%rcx, %xmm1
.LVL179:
	mulss	%xmm8, %xmm0
	divss	%xmm1, %xmm0
	.loc 8 338 0
	movsd	.LC3(%rip), %xmm1
	.loc 8 337 0
	unpcklps	%xmm0, %xmm0
	cvtps2pd	%xmm0, %xmm0
.LVL180:
	.loc 8 338 0
	comisd	%xmm0, %xmm1
	jbe	.L151
	.loc 8 346 0
	movq	48(%r14), %rax
.LVL181:
	movl	$255, %r8d
	movl	8(%rax), %edx
	cvtsi2sdq	%rdx, %xmm1
	movl	4(%rax), %edx
	movl	(%rax), %eax
	mulsd	%xmm0, %xmm1
	cvttsd2si	%xmm1, %ecx
	cvtsi2sdq	%rdx, %xmm1
	movzbl	%cl, %ecx
	mulsd	%xmm0, %xmm1
	cvttsd2si	%xmm1, %edx
	cvtsi2sdq	%rax, %xmm1
	movzbl	%dl, %edx
	mulsd	%xmm0, %xmm1
	cvttsd2si	%xmm1, %esi
	movzbl	%sil, %esi
	jmp	.L139
.LVL182:
	.p2align 4,,10
	.p2align 3
.L101:
.LBE655:
.LBE663:
.LBB664:
	.loc 8 328 0
	movapd	%xmm1, %xmm4
	jmp	.L19
.LVL183:
	.p2align 4,,10
	.p2align 3
.L151:
.LBE664:
.LBB665:
.LBB656:
	.loc 8 355 0
	movq	48(%r14), %rax
.LVL184:
	movl	$255, %r8d
	movq	%rbp, %rdi
	movl	8(%rax), %edx
	movl	%edx, %ecx
	sall	$8, %ecx
	subl	%edx, %ecx
	movl	4(%rax), %edx
	movl	(%rax), %eax
	cvtsi2sdq	%rcx, %xmm1
	movsd	%xmm5, 48(%rsp)
	movl	%edx, %esi
	movsd	%xmm7, 16(%rsp)
	sall	$8, %esi
	movss	%xmm8, (%rsp)
	subl	%edx, %esi
	subsd	%xmm0, %xmm1
	cvttsd2si	%xmm1, %ecx
	cvtsi2sdq	%rsi, %xmm1
	movl	%eax, %esi
	sall	$8, %esi
	subl	%eax, %esi
	movzbl	%cl, %ecx
	subsd	%xmm0, %xmm1
	cvttsd2si	%xmm1, %edx
	cvtsi2sdq	%rsi, %xmm1
	movzbl	%dl, %edx
	subsd	%xmm0, %xmm1
	cvttsd2si	%xmm1, %esi
	movzbl	%sil, %esi
	call	_ZN2sf5ColorC1Ehhhh@PLT
.LVL185:
	movq	56(%r14), %rdi
	movl	%r12d, %esi
	movq	%rbp, %rcx
	movl	%ebx, %edx
.LBE656:
.LBE665:
.LBE670:
	.loc 8 319 0
	addl	$1, %r12d
.LVL186:
.LBB671:
.LBB666:
.LBB657:
	.loc 8 355 0
	call	_ZN2sf5Image8SetPixelEjjRKNS_5ColorE@PLT
.LVL187:
.LBE657:
.LBE666:
.LBE671:
	.loc 8 319 0
	movl	(%r14), %eax
.LBB672:
.LBB667:
.LBB658:
	.loc 8 355 0
	movss	(%rsp), %xmm8
	movsd	16(%rsp), %xmm7
	movsd	48(%rsp), %xmm5
.LBE658:
.LBE667:
.LBE672:
	.loc 8 319 0
	cmpl	%eax, %r12d
	jb	.L40
.LVL188:
.L150:
	movl	8(%r13), %edx
.LVL189:
.L16:
.LBE674:
.LBE642:
	.loc 8 317 0
	addl	$1, %ebx
.LVL190:
	cmpl	%edx, %ebx
	jb	.L41
	jmp	.L106
.LVL191:
.L132:
.LBE675:
.LBE676:
.LBE639:
.LBE638:
.LBB677:
.LBB636:
.LBB513:
.LBB511:
	.loc 2 171 0
	xorl	%eax, %eax
	jmp	.L45
.LBE511:
.LBE513:
.LBE636:
.LBE677:
.LBE681:
.LBE685:
.LBE688:
	.cfi_endproc
.LFE14:
	.size	_ZN3tbb10interface68internal9start_forINS_13blocked_rangeIjEE10ker_doubleNS_20affinity_partitionerEE7executeEv.local.42, .-_ZN3tbb10interface68internal9start_forINS_13blocked_rangeIjEE10ker_doubleNS_20affinity_partitionerEE7executeEv.local.42
	.section	.rodata.cst8,"aM",@progbits,8
	.align 8
.LC1:
	.long	0
	.long	1074790400
	.section	.rodata.cst4,"aM",@progbits,4
	.align 4
.LC2:
	.long	1132396544
	.section	.rodata.cst8
	.align 8
.LC3:
	.long	0
	.long	1080033280
	.text
.Letext0:
	.file 9 "/usr/include/stdint.h"
	.file 10 "/usr/include/SFML/Graphics/Image.hpp"
	.file 11 "/usr/include/SFML/System/Resource.hpp"
	.file 12 "/usr/include/SFML/Graphics/Color.hpp"
	.file 13 "/usr/include/SFML/Config.hpp"
	.file 14 "<built-in>"
	.file 15 "/usr/lib/gcc/x86_64-redhat-linux/4.7.2/../../../../include/c++/4.7.2/bits/stl_set.h"
	.file 16 "/usr/lib/gcc/x86_64-redhat-linux/4.7.2/../../../../include/c++/4.7.2/bits/stl_tree.h"
	.file 17 "/usr/lib/gcc/x86_64-redhat-linux/4.7.2/../../../../include/c++/4.7.2/bits/allocator.h"
	.file 18 "/usr/lib/gcc/x86_64-redhat-linux/4.7.2/../../../../include/c++/4.7.2/x86_64-redhat-linux/bits/c++config.h"
	.file 19 "/usr/lib/gcc/x86_64-redhat-linux/4.7.2/../../../../include/c++/4.7.2/bits/stl_function.h"
	.file 20 "/usr/lib/gcc/x86_64-redhat-linux/4.7.2/../../../../include/c++/4.7.2/bits/stl_vector.h"
	.file 21 "/usr/lib/gcc/x86_64-redhat-linux/4.7.2/../../../../include/c++/4.7.2/bits/alloc_traits.h"
	.file 22 "/usr/lib/gcc/x86_64-redhat-linux/4.7.2/../../../../include/c++/4.7.2/ext/new_allocator.h"
	.file 23 "/usr/lib/gcc/x86_64-redhat-linux/4.7.2/../../../../include/c++/4.7.2/ext/alloc_traits.h"
	.file 24 "/opt/intel/composer_xe_2013.2.146/tbb/include/tbb/tbb_stddef.h"
	.file 25 "/usr/lib/gcc/x86_64-redhat-linux/4.7.2/../../../../include/c++/4.7.2/bits/cpp_type_traits.h"
	.file 26 "/opt/intel/composer_xe_2013.2.146/tbb/include/tbb/atomic.h"
	.file 27 "/opt/intel/composer_xe_2013.2.146/tbb/include/tbb/aligned_space.h"
	.file 28 "/opt/intel/composer_xe_2013.2.146/tbb/include/tbb/tbb_exception.h"
	.section	.note.GNU-stack,"",@progbits
