	.file	"Mandelbrot.ltrans0.o"
	.text
.Ltext0:
	.section	.rodata.str1.1,"aMS",@progbits,1
.LC0:
	.string	"SFML Window"
	.section	.text.startup,"ax",@progbits
	.p2align 4,,15
	.globl	main
	.type	main, @function
main:
.LFB0:
	.file 1 "/home/romain/Dropbox/Perso/Mandelbrot_test/Mandelbrot-0.1/src/Mandelbrot.cpp"
	.loc 1 5 0
	.cfi_startproc
	.cfi_personality 0x9b,DW.ref.__gxx_personality_v0
	.cfi_lsda 0x1b,.LLSDA0
	pushq	%rbx
	.cfi_def_cfa_offset 16
	.cfi_offset 3, -16
.LBB2:
	.loc 1 7 0
	leaq	.LC0(%rip), %rsi
.LBE2:
	.loc 1 5 0
	subq	$800, %rsp
	.cfi_def_cfa_offset 816
.LVL0:
.LBB6:
	.loc 1 7 0
	leaq	15(%rsp), %rdx
	leaq	16(%rsp), %rdi
.LBB3:
.LBB4:
	.file 2 "/usr/include/SFML/Window/WindowSettings.hpp"
	.loc 2 47 0
	movl	$24, 32(%rsp)
	movl	$8, 36(%rsp)
	movl	$0, 40(%rsp)
.LVL1:
.LEHB0:
.LBE4:
.LBE3:
	.loc 1 7 0
	call	_ZNSsC1EPKcRKSaIcE@PLT
.LEHE0:
.LVL2:
	leaq	48(%rsp), %rdi
	movl	$32, %ecx
	movl	$600, %edx
	movl	$800, %esi
.LEHB1:
	call	_ZN2sf9VideoModeC1Ejjj@PLT
.LVL3:
	movq	48(%rsp), %rsi
	movl	56(%rsp), %edx
	leaq	32(%rsp), %r9
.LVL4:
	leaq	16(%rsp), %rcx
	leaq	80(%rsp), %rdi
	movl	$6, %r8d
	call	_ZN2sf6WindowC1ENS_9VideoModeERKSsmRKNS_14WindowSettingsE@PLT
.LEHE1:
.LVL5:
	leaq	16(%rsp), %rdi
	call	_ZNSsD1Ev@PLT
.LVL6:
	.p2align 4,,10
	.p2align 3
.L2:
	.loc 1 9 0
	leaq	80(%rsp), %rdi
.LEHB2:
	call	_ZNK2sf6Window8IsOpenedEv@PLT
.LVL7:
	testb	%al, %al
	je	.L20
	.p2align 4,,10
	.p2align 3
.L15:
.LBB5:
	.loc 1 11 0
	leaq	64(%rsp), %rsi
	leaq	80(%rsp), %rdi
	call	_ZN2sf6Window8GetEventERNS_5EventE@PLT
.LVL8:
	testb	%al, %al
	je	.L21
	.loc 1 13 0
	movl	64(%rsp), %eax
	testl	%eax, %eax
	je	.L22
.L3:
	.loc 1 17 0
	cmpl	$5, %eax
	jne	.L15
	cmpl	$256, 68(%rsp)
	jne	.L15
	.loc 1 21 0
	leaq	80(%rsp), %rdi
	call	_ZN2sf6Window5CloseEv@PLT
.LVL9:
	jmp	.L15
	.p2align 4,,10
	.p2align 3
.L22:
	.loc 1 14 0
	leaq	80(%rsp), %rdi
	call	_ZN2sf6Window5CloseEv@PLT
.LVL10:
	movl	64(%rsp), %eax
	jmp	.L3
	.p2align 4,,10
	.p2align 3
.L21:
	.loc 1 25 0
	leaq	80(%rsp), %rdi
	call	_ZN2sf6Window7DisplayEv@PLT
.LEHE2:
.LVL11:
	jmp	.L2
.L20:
.LBE5:
	.loc 1 28 0
	leaq	80(%rsp), %rdi
.LEHB3:
	call	_ZN2sf6WindowD1Ev@PLT
.LVL12:
.LBE6:
	.loc 1 29 0
	addq	$800, %rsp
	.cfi_remember_state
	.cfi_def_cfa_offset 16
	xorl	%eax, %eax
	popq	%rbx
	.cfi_def_cfa_offset 8
	ret
.LVL13:
.L10:
	.cfi_restore_state
.LBB7:
	.loc 1 7 0
	leaq	16(%rsp), %rdi
	movq	%rax, %rbx
	call	_ZNSsD1Ev@PLT
.LVL14:
	movq	%rbx, %rdi
	call	_Unwind_Resume@PLT
.LEHE3:
.LVL15:
.L11:
	.loc 1 28 0
	leaq	80(%rsp), %rdi
	movq	%rax, %rbx
	call	_ZN2sf6WindowD1Ev@PLT
.LVL16:
	movq	%rbx, %rdi
.LEHB4:
	call	_Unwind_Resume@PLT
.LEHE4:
.LVL17:
.LBE7:
	.cfi_endproc
.LFE0:
	.globl	__gxx_personality_v0
	.section	.gcc_except_table,"a",@progbits
.LLSDA0:
	.byte	0xff
	.byte	0xff
	.byte	0x1
	.uleb128 .LLSDACSE0-.LLSDACSB0
.LLSDACSB0:
	.uleb128 .LEHB0-.LFB0
	.uleb128 .LEHE0-.LEHB0
	.uleb128 0
	.uleb128 0
	.uleb128 .LEHB1-.LFB0
	.uleb128 .LEHE1-.LEHB1
	.uleb128 .L10-.LFB0
	.uleb128 0
	.uleb128 .LEHB2-.LFB0
	.uleb128 .LEHE2-.LEHB2
	.uleb128 .L11-.LFB0
	.uleb128 0
	.uleb128 .LEHB3-.LFB0
	.uleb128 .LEHE3-.LEHB3
	.uleb128 0
	.uleb128 0
	.uleb128 .LEHB4-.LFB0
	.uleb128 .LEHE4-.LEHB4
	.uleb128 0
	.uleb128 0
.LLSDACSE0:
	.section	.text.startup
	.size	main, .-main
	.weak	_ZTIN2sf14WindowListenerE
	.section	.data.rel.ro._ZTIN2sf14WindowListenerE,"awG",@progbits,_ZTIN2sf14WindowListenerE,comdat
	.align 16
	.type	_ZTIN2sf14WindowListenerE, @object
	.size	_ZTIN2sf14WindowListenerE, 16
_ZTIN2sf14WindowListenerE:
	.quad	_ZTVN10__cxxabiv117__class_type_infoE+16
	.quad	_ZTSN2sf14WindowListenerE
	.weak	_ZTSN2sf14WindowListenerE
	.section	.rodata._ZTSN2sf14WindowListenerE,"aG",@progbits,_ZTSN2sf14WindowListenerE,comdat
	.align 16
	.type	_ZTSN2sf14WindowListenerE, @object
	.size	_ZTSN2sf14WindowListenerE, 22
_ZTSN2sf14WindowListenerE:
	.string	"N2sf14WindowListenerE"
	.text
.Letext0:
	.file 3 "/usr/include/SFML/Window/Window.hpp"
	.file 4 "/usr/include/SFML/Window/Event.hpp"
	.file 5 "/usr/include/SFML/Config.hpp"
	.file 6 "/usr/include/SFML/Window/VideoMode.hpp"
	.file 7 "<built-in>"
	.file 8 "/usr/lib/gcc/x86_64-redhat-linux/4.7.2/../../../../include/c++/4.7.2/bits/basic_string.h"
	.file 9 "/usr/lib/gcc/x86_64-redhat-linux/4.7.2/../../../../include/c++/4.7.2/bits/stringfwd.h"
	.section	.data.DW.ref.__gxx_personality_v0,"awG",@progbits,DW.ref.__gxx_personality_v0,comdat
	.align 8
	.type	DW.ref.__gxx_personality_v0, @object
	.size	DW.ref.__gxx_personality_v0, 8
DW.ref.__gxx_personality_v0:
	.quad	__gxx_personality_v0
	.ident	"GCC: (GNU) 4.7.2 20121109 (Red Hat 4.7.2-8)"
	.section	.note.GNU-stack,"",@progbits
