	.file	"Mandelbrot.ltrans2.o"
	.text
.Ltext0:
	.align 2
	.p2align 4,,15
	.globl	_ZN3tbb10interface68internal9start_forINS_13blocked_rangeIjEE13ker_float_sseNS_20affinity_partitionerEE7executeEv.local.30
	.hidden	_ZN3tbb10interface68internal9start_forINS_13blocked_rangeIjEE13ker_float_sseNS_20affinity_partitionerEE7executeEv.local.30
	.type	_ZN3tbb10interface68internal9start_forINS_13blocked_rangeIjEE13ker_float_sseNS_20affinity_partitionerEE7executeEv.local.30, @function
_ZN3tbb10interface68internal9start_forINS_13blocked_rangeIjEE13ker_float_sseNS_20affinity_partitionerEE7executeEv.local.30:
.LFB14:
	.file 1 "/opt/intel/composer_xe_2013.2.146/tbb/include/tbb/parallel_for.h"
	.loc 1 106 0
	.cfi_startproc
.LVL0:
	pushq	%r15
	.cfi_def_cfa_offset 16
	.cfi_offset 15, -16
	pushq	%r14
	.cfi_def_cfa_offset 24
	.cfi_offset 14, -24
	movq	%rdi, %r14
	pushq	%r13
	.cfi_def_cfa_offset 32
	.cfi_offset 13, -32
	pushq	%r12
	.cfi_def_cfa_offset 40
	.cfi_offset 12, -40
	pushq	%rbp
	.cfi_def_cfa_offset 48
	.cfi_offset 6, -48
	pushq	%rbx
	.cfi_def_cfa_offset 56
	.cfi_offset 3, -56
	subq	$312, %rsp
	.cfi_def_cfa_offset 368
.LBB788:
.LBB789:
	.file 2 "/opt/intel/composer_xe_2013.2.146/tbb/include/tbb/partitioner.h"
	.loc 2 297 0
	cmpq	$0, 64(%rdi)
	jne	.L3
	.loc 2 299 0
	cmpb	$0, -11(%rdi)
	.loc 2 298 0
	movq	$1, 64(%rdi)
.LVL1:
	.loc 2 299 0
	jns	.L3
.LVL2:
.LBB790:
.LBB791:
.LBB792:
.LBB793:
.LBB794:
	.file 3 "/opt/intel/composer_xe_2013.2.146/tbb/include/tbb/task.h"
	.loc 3 728 0
	movq	-32(%rdi), %rax
.LVL3:
.LBE794:
.LBE793:
.LBB795:
.LBB796:
.LBB797:
.LBB798:
	.file 4 "/opt/intel/composer_xe_2013.2.146/tbb/include/tbb/tbb_machine.h"
	.loc 4 584 0
	.loc 4 585 0
	movb	$1, 8(%rax)
.LBE798:
.LBE797:
.LBE796:
.LBE795:
.LBE792:
	.loc 2 308 0
	addb	$1, 72(%rdi)
.LVL4:
.L3:
.LBE791:
.LBE790:
.LBE789:
.LBE788:
.LBB799:
.LBB800:
.LBB801:
.LBB802:
	.file 5 "/usr/lib/gcc/x86_64-redhat-linux/4.7.2/../../../../include/c++/4.7.2/bits/locale_facets.h"
	.loc 5 1078 0
	movl	8(%r14), %eax
	movl	12(%r14), %r13d
.LBE802:
.LBE801:
.LBE800:
.LBE799:
	.loc 1 108 0
	leaq	8(%r14), %r9
.LBB1464:
.LBB1459:
.LBB934:
.LBB935:
	.loc 3 728 0
	movq	-32(%r14), %rbx
.LBE935:
.LBE934:
.LBE1459:
.LBE1464:
	.loc 1 108 0
	movq	%r9, 72(%rsp)
.LVL5:
.LBB1465:
.LBB1460:
.LBB936:
.LBB805:
.LBB803:
.LBB804:
	.file 6 "/opt/intel/composer_xe_2013.2.146/tbb/include/tbb/blocked_range.h"
	.loc 6 71 0
	movl	%eax, %edx
	subl	%r13d, %edx
.LBE804:
.LBE803:
.LBE805:
	.loc 2 236 0
	cmpq	%rdx, 16(%r14)
	jae	.L5
.LBB806:
	.loc 2 237 0
	cmpq	$1, 64(%r14)
.LBE806:
.LBE936:
.LBE1460:
.LBE1465:
	.loc 1 108 0
	leaq	64(%r14), %r9
.LVL6:
	movq	%r9, 64(%rsp)
.LVL7:
.LBB1466:
.LBB1461:
.LBB937:
.LBB932:
	.loc 2 237 0
	jbe	.L6
.LVL8:
.L11:
.LBB807:
.LBB808:
.LBB809:
.LBB810:
.LBB811:
.LBB812:
.LBB813:
	.loc 3 933 0
	movl	$16, %esi
	movq	%r14, %rdi
	call	_ZNK3tbb8internal27allocate_continuation_proxy8allocateEm@PLT
.LVL9:
.LBE813:
.LBE812:
.LBB815:
.LBB816:
.LBB817:
.LBB818:
	.loc 3 522 0
	movb	$1, -11(%rax)
.LBE818:
.LBE817:
.LBE816:
.LBE815:
.LBB829:
.LBB814:
	.loc 3 933 0
	movq	%rax, %rbx
.LVL10:
.LBE814:
.LBE829:
.LBB830:
.LBB827:
	.loc 2 110 0
	leaq	16+_ZTVN3tbb10interface68internal9flag_taskE.local.147(%rip), %rax
.LVL11:
	movq	%rax, (%rbx)
.LVL12:
.LBB819:
.LBB820:
.LBB821:
.LBB822:
	.loc 4 584 0
.LBE822:
.LBE821:
.LBE820:
.LBE819:
.LBE827:
.LBE830:
.LBE811:
.LBE810:
.LBB833:
.LBB834:
	.loc 3 941 0
	movl	$96, %esi
.LBE834:
.LBE833:
.LBB837:
.LBB832:
.LBB831:
.LBB828:
.LBB826:
.LBB825:
.LBB824:
.LBB823:
	.loc 4 585 0
	movb	$0, 8(%rbx)
.LVL13:
.LBE823:
.LBE824:
.LBE825:
.LBE826:
.LBE828:
.LBE831:
.LBE832:
.LBE837:
.LBB838:
.LBB839:
	.loc 3 652 0
	movq	$2, -24(%rbx)
.LBE839:
.LBE838:
.LBB840:
.LBB841:
	.loc 3 735 0
	movq	%rbx, -32(%r14)
.LVL14:
.LBE841:
.LBE840:
.LBB842:
.LBB835:
	.loc 3 941 0
	movq	%rbx, %rdi
	call	_ZNK3tbb8internal20allocate_child_proxy8allocateEm@PLT
.LVL15:
.LBE835:
.LBE842:
.LBB843:
.LBB844:
	.loc 1 58 0
	leaq	16+_ZTVN3tbb10interface68internal9start_forINS_13blocked_rangeIjEE13ker_float_sseNS_20affinity_partitionerEEE.local.146(%rip), %rdx
.LBB845:
.LBB846:
	.loc 3 522 0
	movb	$1, -11(%rax)
.LBE846:
.LBE845:
.LBE844:
.LBE843:
.LBB888:
.LBB836:
	.loc 3 941 0
	movq	%rax, %rsi
.LVL16:
.LBE836:
.LBE888:
.LBB889:
.LBB886:
	.loc 1 58 0
	movq	%rdx, (%rax)
.LVL17:
.LBB847:
.LBB848:
	.loc 6 94 0
	movl	8(%r14), %eax
.LVL18:
	movl	%eax, 8(%rsi)
.LBE848:
	.loc 5 1078 0
	movl	12(%r14), %edx
.LVL19:
.LBB851:
.LBB849:
	.loc 6 107 0
	movl	8(%r14), %eax
	subl	%edx, %eax
	shrl	%eax
	addl	%edx, %eax
.LVL20:
.LBE849:
.LBE851:
.LBE847:
.LBB854:
.LBB855:
.LBB856:
.LBB857:
	.loc 2 291 0
	movq	64(%r14), %rdx
.LBE857:
.LBE856:
.LBE855:
.LBE854:
.LBB877:
.LBB852:
.LBB850:
	.loc 6 108 0
	movl	%eax, 8(%r14)
.LBE850:
	.loc 6 94 0
	movl	%eax, 12(%rsi)
	movq	16(%r14), %rax
.LVL21:
.LBE852:
.LBE877:
.LBB878:
.LBB872:
.LBB863:
.LBB860:
	.loc 2 291 0
	shrq	%rdx
.LBE860:
.LBE863:
.LBE872:
.LBE878:
.LBB879:
.LBB853:
	.loc 6 94 0
	movq	%rax, 16(%rsi)
.LBE853:
.LBE879:
	.loc 1 58 0
	movq	24(%r14), %rax
	movq	%rax, 24(%rsi)
	movq	32(%r14), %rax
	movq	%rax, 32(%rsi)
	movq	40(%r14), %rax
	movq	%rax, 40(%rsi)
	movq	48(%r14), %rax
	movq	%rax, 48(%rsi)
	movq	56(%r14), %rax
.LBB880:
.LBB873:
.LBB864:
.LBB861:
	.loc 2 291 0
	movq	%rdx, 64(%rsi)
.LBE861:
.LBE864:
.LBE873:
.LBE880:
	.loc 1 58 0
	movq	%rax, 56(%rsi)
.LVL22:
.LBB881:
.LBB874:
.LBB865:
.LBB862:
	.loc 2 286 0
	movzbl	72(%r14), %eax
	movb	%al, 72(%rsi)
	.loc 2 292 0
	movq	64(%r14), %rax
	subq	%rdx, %rax
	movq	%rax, 64(%r14)
	.loc 2 293 0
	movq	64(%rsi), %rcx
	testq	%rcx, %rcx
	je	.L7
.LVL23:
	xorl	%edx, %edx
	divq	%rcx
.LVL24:
.LBB858:
.LBB859:
	.file 7 "/opt/intel/composer_xe_2013.2.146/tbb/include/tbb/machine/gcc_ia32_common.h"
	.loc 7 31 0
#APP
# 31 "/opt/intel/composer_xe_2013.2.146/tbb/include/tbb/machine/gcc_ia32_common.h" 1
	bsr %rax,%rax
# 0 "" 2
.LVL25:
#NO_APP
.LBE859:
.LBE858:
	.loc 2 293 0
	addb	%al, 72(%r14)
.LVL26:
.L7:
.LBE862:
.LBE865:
	.loc 2 368 0
	movl	80(%r14), %eax
	.loc 2 366 0
	movq	88(%r14), %rdx
	.loc 2 368 0
	movl	%eax, 80(%rsi)
	.loc 2 369 0
	movl	84(%r14), %eax
	.loc 2 366 0
	movq	%rdx, 88(%rsi)
	.loc 2 369 0
	movl	%eax, 80(%r14)
.LBE874:
	.loc 5 1078 0
	movl	80(%rsi), %ecx
.LBB875:
	.loc 2 369 0
	movl	%eax, 76(%rsi)
.LVL27:
.LBB866:
.LBB867:
	.loc 2 347 0
	movl	%ecx, %edi
	subl	%eax, %edi
	movl	%edi, %eax
	shrl	%eax
.LVL28:
	.loc 2 349 0
	movl	%eax, %edi
	andl	$-16, %edi
	cmpl	$17, %eax
	cmovae	%edi, %eax
.LVL29:
	.loc 2 350 0
	subl	%eax, %ecx
	movl	%ecx, 84(%rsi)
.LVL30:
.LBE867:
.LBE866:
.LBE875:
	.loc 5 1078 0
	movl	80(%r14), %ecx
.LVL31:
.LBB876:
.LBB868:
.LBB869:
	.loc 2 347 0
	movl	%ecx, %eax
.LVL32:
	subl	76(%r14), %eax
	shrl	%eax
.LVL33:
	.loc 2 349 0
	movl	%eax, %edi
.LVL34:
	andl	$-16, %edi
	cmpl	$17, %eax
	cmovae	%edi, %eax
.LVL35:
	.loc 2 350 0
	subl	%eax, %ecx
.LBE869:
.LBE868:
	.loc 2 371 0
	movzbl	73(%r14), %eax
.LVL36:
.LBB871:
.LBB870:
	.loc 2 350 0
	movl	%ecx, 84(%r14)
.LBE870:
.LBE871:
	.loc 2 371 0
	movb	%al, 73(%rsi)
.LBE876:
.LBE881:
.LBE886:
	.loc 5 1078 0
	movl	76(%rsi), %eax
.LVL37:
.LBB887:
.LBB882:
.LBB883:
	.loc 2 374 0
	cmpl	80(%rsi), %eax
	jae	.L10
	.loc 2 375 0
	movzwl	(%rdx,%rax,2), %eax
.LVL38:
.LBB884:
.LBB885:
	.loc 3 780 0
	movw	%ax, -10(%rsi)
.LVL39:
.L10:
.LBE885:
.LBE884:
.LBE883:
.LBE882:
.LBE887:
.LBE889:
.LBB890:
.LBB891:
	.loc 3 895 0
	movq	-40(%rsi), %rdi
.LVL40:
	leaq	-8(%rsi), %rdx
	movq	(%rdi), %rax
	call	*(%rax)
.LVL41:
.LBE891:
.LBE890:
.LBE809:
.LBE808:
.LBE807:
.LBB892:
.LBB893:
.LBB894:
	.loc 6 71 0
	movq	72(%rsp), %r9
	movl	(%r9), %eax
	subl	4(%r9), %eax
.LBE894:
.LBE893:
.LBE892:
	.loc 2 238 0
	cmpq	%rax, 8(%r9)
	jb	.L234
.LVL42:
.L6:
.LBB895:
	.loc 2 241 0
	cmpl	$1, -24(%rbx)
	jle	.L12
.LVL43:
.LBB896:
.LBB897:
.LBB898:
.LBB899:
	.loc 3 933 0
	movl	$16, %esi
	movq	%r14, %rdi
	call	_ZNK3tbb8internal27allocate_continuation_proxy8allocateEm@PLT
.LVL44:
.LBE899:
.LBE898:
.LBB901:
.LBB902:
.LBB903:
.LBB904:
	.loc 3 522 0
	movb	$1, -11(%rax)
.LBE904:
.LBE903:
.LBE902:
.LBE901:
.LBB910:
.LBB900:
	.loc 3 933 0
	movq	%rax, %rbx
.LVL45:
.LBE900:
.LBE910:
.LBB911:
.LBB909:
	.loc 2 110 0
	leaq	16+_ZTVN3tbb10interface68internal9flag_taskE.local.147(%rip), %rax
.LVL46:
	movq	%rax, (%rbx)
.LVL47:
.LBB905:
.LBB906:
.LBB907:
.LBB908:
	.loc 4 584 0
	.loc 4 585 0
	movb	$0, 8(%rbx)
.LVL48:
.LBE908:
.LBE907:
.LBE906:
.LBE905:
.LBE909:
.LBE911:
.LBE897:
.LBE896:
.LBB912:
.LBB913:
	.loc 3 735 0
	movq	%rbx, -32(%r14)
.LVL49:
.L12:
.LBE913:
.LBE912:
.LBB914:
.LBB915:
	.loc 3 941 0
	movl	$8, %esi
	movq	%rbx, %rdi
.LBE915:
.LBE914:
.LBB917:
.LBB918:
	.loc 3 652 0
	movq	$2, -24(%rbx)
.LVL50:
.LBE918:
.LBE917:
.LBB919:
.LBB916:
	.loc 3 941 0
	call	_ZNK3tbb8internal20allocate_child_proxy8allocateEm@PLT
.LVL51:
.LBE916:
.LBE919:
.LBB920:
.LBB921:
	.loc 3 895 0
	movq	-40(%rax), %rdi
.LBE921:
.LBE920:
.LBB924:
.LBB925:
	.loc 2 127 0
	leaq	16+_ZTVN3tbb10interface68internal11signal_taskE.local.148(%rip), %rdx
.LBB926:
.LBB927:
	.loc 3 522 0
	movb	$1, -11(%rax)
.LBE927:
.LBE926:
.LBE925:
.LBE924:
.LBB929:
.LBB922:
	.loc 3 895 0
	movq	%rax, %rsi
.LBE922:
.LBE929:
.LBB930:
.LBB928:
	.loc 2 127 0
	movq	%rdx, (%rax)
.LVL52:
.LBE928:
.LBE930:
.LBB931:
.LBB923:
	.loc 3 895 0
	leaq	-8(%rax), %rdx
	movq	(%rdi), %rcx
	call	*(%rcx)
.LVL53:
.LBE923:
.LBE931:
.LBE895:
.LBE932:
.LBE937:
.LBB938:
.LBB939:
	.loc 5 1078 0
	movl	8(%r14), %eax
	movl	12(%r14), %r13d
.LBB940:
.LBB941:
	.loc 6 71 0
	movl	%eax, %edx
	subl	%r13d, %edx
.LBE941:
.LBE940:
.LBE939:
	.loc 2 250 0
	cmpq	%rdx, 16(%r14)
	jae	.L5
.LVL54:
.LBE938:
.LBE1461:
	.loc 5 1078 0
	movzbl	72(%r14), %edi
.LVL55:
.LBB1462:
.LBB1455:
	.loc 2 250 0
	testb	%dil, %dil
	je	.L5
.LVL56:
.LBB942:
.LBB943:
.LBB944:
	.loc 2 155 0
	movq	8(%r14), %rax
	.loc 2 153 0
	movb	$0, 160(%rsp)
	.loc 2 155 0
	movl	$1, %edx
	.loc 2 153 0
	movb	$0, 161(%rsp)
	movb	$1, 162(%rsp)
	.loc 2 154 0
	movb	$0, 163(%rsp)
.LVL57:
	.loc 2 155 0
	movq	%rax, 176(%rsp)
	movq	16(%r14), %rax
	movq	%rax, 184(%rsp)
.LVL58:
.L163:
.LBE944:
.LBE943:
.LBB945:
.LBB946:
	.loc 2 165 0
	cmpb	$7, %dl
	ja	.L79
	movzbl	160(%rsp), %esi
	movzbl	%sil, %eax
	movzbl	163(%rsp,%rax), %eax
	cmpb	%dil, %al
	jae	.L79
.LVL59:
	movzbl	%sil, %ecx
	leaq	176(%rsp), %r9
.LVL60:
	movq	%rcx, %r8
	salq	$4, %r8
	addq	%r9, %r8
.LVL61:
.LBB947:
.LBB948:
.LBB949:
	.loc 6 71 0
	movl	(%r8), %r9d
.LVL62:
	subl	4(%r8), %r9d
.LBE949:
.LBE948:
.LBE947:
	.loc 2 165 0
	cmpq	8(%r8), %r9
	jbe	.L79
.LBB952:
	.loc 2 169 0
	leaq	176(%rsp), %r8
.LVL63:
	jmp	.L218
.LVL64:
	.p2align 4,,10
	.p2align 3
.L236:
.LBE952:
	.loc 2 165 0
	cmpb	%dil, %al
	jae	.L79
	movq	%rcx, %r9
.LVL65:
	salq	$4, %rcx
	addq	%r8, %rcx
.LVL66:
.LBB957:
.LBB951:
.LBB950:
	.loc 6 71 0
	movl	(%rcx), %r10d
.LVL67:
	subl	4(%rcx), %r10d
.LBE950:
.LBE951:
.LBE957:
	.loc 2 165 0
	cmpq	%r10, 8(%rcx)
	jae	.L79
	movq	%r9, %rcx
.LVL68:
.L218:
.LBB958:
	.loc 2 168 0
	movzbl	%sil, %r10d
	.loc 2 169 0
	salq	$4, %rcx
	.loc 2 168 0
	leal	1(%r10), %r9d
	.loc 2 169 0
	addq	%r8, %rcx
	.loc 2 168 0
	andl	$7, %r9d
	movl	%r9d, %esi
.LVL69:
	movb	%r9b, 160(%rsp)
.LVL70:
	.loc 2 169 0
	movslq	%r9d, %r9
	salq	$4, %r9
.LVL71:
	addq	%r8, %r9
.LVL72:
	je	.L235
	movq	(%rcx), %rax
	movq	%rax, (%r9)
	movq	8(%rcx), %rax
	movq	%rax, 8(%r9)
.LVL73:
	.loc 2 171 0
	movzbl	160(%rsp), %eax
	salq	$4, %rax
	addq	%r8, %rax
.LVL74:
.L81:
.LBB953:
.LBB954:
	.loc 6 94 0
	movl	(%rax), %edx
	movl	%edx, (%rcx)
.LBE954:
	.loc 5 1078 0
	movl	4(%rax), %esi
.LVL75:
.LBB956:
.LBB955:
	.loc 6 107 0
	movl	(%rax), %edx
	subl	%esi, %edx
	shrl	%edx
	addl	%esi, %edx
.LVL76:
	.loc 6 108 0
	movl	%edx, (%rax)
.LBE955:
	.loc 6 94 0
	movq	8(%rax), %rax
.LVL77:
	movl	%edx, 4(%rcx)
	movzbl	160(%rsp), %esi
	movzbl	162(%rsp), %edx
.LVL78:
	movq	%rax, 8(%rcx)
	movslq	%r10d, %rcx
.LVL79:
	movzbl	163(%rsp,%rcx), %eax
.L82:
.LBE956:
.LBE953:
	.loc 2 172 0
	addl	$1, %eax
	.loc 2 173 0
	addl	$1, %edx
	.loc 2 172 0
	movb	%al, 163(%rsp,%rcx)
.LBE958:
	.loc 2 165 0
	cmpb	$7, %dl
.LBB959:
	.loc 2 172 0
	movzbl	%sil, %ecx
	movb	%al, 163(%rsp,%rcx)
	.loc 2 173 0
	movb	%dl, 162(%rsp)
.LBE959:
	.loc 2 165 0
	jbe	.L236
.LVL80:
.L79:
.LBE946:
.LBE945:
.LBB965:
.LBB966:
	.loc 2 382 0
	movq	64(%rsp), %r9
	cmpb	$0, 9(%r9)
	jne	.L169
	.loc 2 383 0
	movq	64(%rsp), %r9
	movl	16(%r9), %eax
	cmpl	%eax, 20(%r9)
	jb	.L84
.LVL81:
.LBB967:
.LBB968:
.LBB969:
.LBB970:
	.loc 3 728 0
	movq	-32(%r14), %rax
.LVL82:
.LBE970:
.LBE969:
.LBB971:
.LBB972:
.LBB973:
	.loc 4 579 0
	movzbl	8(%rax), %eax
.LVL83:
	.loc 4 580 0
.LVL84:
.LBE973:
.LBE972:
.LBE971:
	.loc 2 387 0
	testb	%al, %al
	je	.L229
	.loc 2 388 0
	movq	64(%rsp), %r9
	movzbl	162(%rsp), %edx
	addb	$1, 8(%r9)
.LVL85:
.L84:
.LBE968:
.LBE967:
.LBE966:
.LBE965:
.LBB975:
.LBB976:
	.loc 2 257 0
	cmpb	$1, %dl
	ja	.L237
.LVL86:
.LBE976:
.LBB1068:
.LBB1069:
	.loc 2 190 0
	movzbl	160(%rsp), %eax
	movzbl	%al, %ecx
	salq	$4, %rcx
	leaq	176(%rsp,%rcx), %rcx
.LBE1069:
.LBE1068:
.LBB1071:
	.loc 5 1078 0
	movq	%rcx, %r9
.LBE1071:
.LBB1074:
.LBB1070:
	.loc 2 190 0
	movq	%rcx, 72(%rsp)
.LVL87:
.LBE1070:
.LBE1074:
.LBB1075:
	.loc 5 1078 0
	movl	(%rcx), %ecx
.LVL88:
	movl	4(%r9), %r13d
.LBB1072:
.LBB1073:
	.loc 6 71 0
	movl	%ecx, %esi
	subl	%r13d, %esi
.LBE1073:
.LBE1072:
.LBE1075:
	.loc 2 266 0
	cmpq	%rsi, 8(%r9)
	jb	.L92
.LVL89:
.L86:
.LBE975:
.LBB1078:
.LBB1079:
.LBB1080:
.LBB1081:
	.file 8 "/home/romain/Dropbox/Perso/Mandelbrot_test/Mandelbrot-0.1/include/Mandelbrot.hpp"
	.loc 8 184 0
	movl	24(%r14), %r9d
.LBE1081:
.LBE1080:
	.loc 1 102 0
	leaq	24(%r14), %rbx
.LVL90:
.LBB1259:
.LBB1256:
	.loc 8 184 0
	andl	$-8, %r9d
.LBB1082:
	.loc 8 185 0
	cmpl	%ecx, %r13d
.LBE1082:
	.loc 8 184 0
	movl	%r9d, 44(%rsp)
.LVL91:
.LBB1253:
	.loc 8 185 0
	jae	.L93
.LVL92:
	.p2align 4,,10
	.p2align 3
.L198:
.LBB1083:
	.loc 8 187 0
	movl	%r13d, %eax
	.loc 8 188 0
	movss	20(%rbx), %xmm1
	.loc 8 187 0
	cvtsi2ssq	%rax, %xmm2
.LVL93:
.LBB1084:
	.loc 8 191 0
	movl	44(%rsp), %esi
.LBE1084:
.LBB1215:
.LBB1216:
	.file 9 "/usr/lib/gcc/x86_64-redhat-linux/4.7.2/include/xmmintrin.h"
	.loc 9 176 0
	movaps	%xmm1, %xmm4
.LBE1216:
.LBE1215:
	.loc 8 188 0
	movss	8(%rbx), %xmm0
.LBB1220:
.LBB1217:
	.loc 9 176 0
	shufps	$0, %xmm4, %xmm4
.LBE1217:
.LBE1220:
.LBB1221:
	.loc 8 191 0
	testl	%esi, %esi
.LBE1221:
.LBB1222:
.LBB1218:
	.loc 9 176 0
	movaps	%xmm2, %xmm3
.LBE1218:
.LBE1222:
	.loc 8 189 0
	divss	%xmm1, %xmm2
.LVL94:
.LBB1223:
.LBB1219:
	.loc 9 176 0
	shufps	$0, %xmm3, %xmm3
.LVL95:
	movaps	%xmm3, 48(%rsp)
	movaps	48(%rsp), %xmm6
	divps	%xmm4, %xmm6
.LVL96:
.LBE1219:
.LBE1223:
.LBB1224:
.LBB1225:
	.loc 9 158 0
	movaps	%xmm0, %xmm4
.LBE1225:
.LBE1224:
	.loc 8 189 0
	addss	%xmm2, %xmm0
.LVL97:
	movss	%xmm0, 40(%rsp)
.LBB1227:
.LBB1226:
	.loc 9 158 0
	shufps	$0, %xmm4, %xmm4
.LVL98:
	movaps	%xmm4, %xmm3
.LVL99:
	addps	%xmm6, %xmm3
	movaps	%xmm3, 48(%rsp)
.LVL100:
.LBE1226:
.LBE1227:
.LBB1228:
	.loc 8 191 0
	je	.L140
	leaq	96(%rsp), %rax
.LVL101:
	leaq	80(%rsp), %rbp
	xorl	%r12d, %r12d
	movq	%rax, 32(%rsp)
.LVL102:
	.p2align 4,,10
	.p2align 3
.L96:
.LBB1085:
	.loc 8 193 0
	leal	4(%r12), %eax
.LBB1086:
.LBB1087:
.LBB1088:
	.loc 9 866 0
	movss	16(%rbx), %xmm1
	shufps	$0, %xmm1, %xmm1
.LBE1088:
.LBE1087:
.LBE1086:
.LBB1097:
	.loc 8 204 0
	movl	12(%rbx), %edx
.LBE1097:
	.loc 8 193 0
	cvtsi2ssq	%rax, %xmm15
	leal	5(%r12), %eax
	cvtsi2ssq	%rax, %xmm2
	leal	6(%r12), %eax
.LBB1186:
.LBB1090:
.LBB1089:
	.loc 9 866 0
	movaps	%xmm1, %xmm0
.LVL103:
.LBE1089:
.LBE1090:
.LBE1186:
.LBB1187:
	.loc 8 204 0
	testl	%edx, %edx
.LBE1187:
	.loc 8 193 0
	cvtsi2ssq	%rax, %xmm3
	leal	7(%r12), %eax
	cvtsi2ssq	%rax, %xmm1
	movl	%r12d, %eax
.LBB1188:
.LBB1091:
	.loc 9 176 0
	unpcklps	%xmm2, %xmm15
	unpcklps	%xmm1, %xmm3
	movlhps	%xmm3, %xmm15
.LBE1091:
.LBE1188:
	.loc 8 193 0
	cvtsi2ssq	%rax, %xmm3
	leal	1(%r12), %eax
.LBB1189:
.LBB1092:
	.loc 9 176 0
	divps	%xmm0, %xmm15
.LVL104:
.LBE1092:
.LBE1189:
	.loc 8 193 0
	cvtsi2ssq	%rax, %xmm2
	leal	2(%r12), %eax
	cvtsi2ssq	%rax, %xmm4
	leal	3(%r12), %eax
	cvtsi2ssq	%rax, %xmm1
.LBB1190:
.LBB1093:
.LBB1094:
	.loc 9 176 0
	unpcklps	%xmm2, %xmm3
	unpcklps	%xmm1, %xmm4
	movlhps	%xmm4, %xmm3
.LBE1094:
.LBE1093:
.LBE1190:
.LBB1191:
.LBB1192:
.LBB1193:
	.loc 9 866 0
	movss	4(%rbx), %xmm4
.LBE1193:
.LBE1192:
.LBE1191:
.LBB1199:
.LBB1096:
.LBB1095:
	.loc 9 176 0
	divps	%xmm0, %xmm3
.LVL105:
.LBE1095:
.LBE1096:
.LBE1199:
.LBB1200:
.LBB1195:
.LBB1194:
	.loc 9 866 0
	shufps	$0, %xmm4, %xmm4
.LVL106:
	movaps	%xmm4, %xmm0
.LVL107:
.LBE1194:
.LBE1195:
.LBB1196:
	.loc 9 158 0
	addps	%xmm4, %xmm15
.LVL108:
.LBE1196:
.LBB1197:
.LBB1198:
	addps	%xmm3, %xmm0
.LVL109:
	movaps	%xmm0, (%rsp)
.LVL110:
.LBE1198:
.LBE1197:
.LBE1200:
.LBB1201:
	.loc 8 204 0
	jne	.L182
	.file 10 "/home/romain/Dropbox/Perso/Mandelbrot_test/Vector-1.0/Vector/include/vectori256e.h"
	.loc 10 1430 0
	pxor	%xmm13, %xmm13
	movdqa	%xmm13, %xmm12
.LVL111:
	.p2align 4,,10
	.p2align 3
.L116:
.LBE1201:
.LBB1202:
.LBB1203:
	.file 11 "/usr/lib/gcc/x86_64-redhat-linux/4.7.2/include/emmintrin.h"
	.loc 11 697 0
	movdqa	%xmm13, 96(%rsp)
.LVL112:
.LBE1203:
.LBB1204:
.LBB1205:
	xorl	%r15d, %r15d
	movdqa	%xmm12, 112(%rsp)
.LVL113:
	jmp	.L139
.LVL114:
	.p2align 4,,10
	.p2align 3
.L239:
.LBE1205:
.LBE1204:
.LBE1202:
.LBB1206:
.LBB1207:
.LBB1208:
	.loc 8 240 0
	movl	8(%rsi), %edx
	cvtsi2ssq	%rdx, %xmm1
	movl	4(%rsi), %edx
	movl	(%rsi), %esi
	mulss	%xmm0, %xmm1
	cvttss2si	%xmm1, %ecx
	cvtsi2ssq	%rdx, %xmm1
	movzbl	%cl, %ecx
	mulss	%xmm0, %xmm1
	cvttss2si	%xmm1, %edx
	cvtsi2ssq	%rsi, %xmm1
	movzbl	%dl, %edx
	mulss	%xmm0, %xmm1
.L231:
	.loc 8 249 0
	cvttss2si	%xmm1, %esi
	movl	$255, %r8d
	movzbl	%sil, %esi
.LVL115:
.L230:
	movq	%rbp, %rdi
	call	_ZN2sf5ColorC1Ehhhh@PLT
.LVL116:
	movq	32(%rbx), %rdi
	.loc 1 106 0
	leal	(%r12,%r15), %esi
	.loc 8 249 0
	movq	%rbp, %rcx
	movl	%r13d, %edx
	addq	$1, %r15
.LVL117:
	call	_ZN2sf5Image8SetPixelEjjRKNS_5ColorE@PLT
.LVL118:
.LBE1208:
.LBE1207:
	.loc 8 224 0
	cmpq	$8, %r15
	je	.L138
	movl	36(%r14), %edx
.L139:
.LVL119:
.LBB1210:
	.loc 8 225 0
	movq	32(%rsp), %r9
	movl	(%r9,%r15,4), %ecx
	cmpl	%edx, %ecx
	je	.L238
.LBB1209:
	.loc 8 231 0
	cvtsi2ssq	%rcx, %xmm0
	.loc 8 240 0
	movq	24(%rbx), %rsi
	.loc 8 231 0
	cvtsi2ssq	%rdx, %xmm1
	mulss	.LC1(%rip), %xmm0
	divss	%xmm1, %xmm0
.LVL120:
	.loc 8 232 0
	movss	.LC2(%rip), %xmm1
	comiss	%xmm0, %xmm1
	ja	.L239
	.loc 8 249 0
	movl	8(%rsi), %edx
	movl	%edx, %ecx
	sall	$8, %ecx
	subl	%edx, %ecx
	movl	4(%rsi), %edx
	movl	(%rsi), %esi
	cvtsi2ssq	%rcx, %xmm1
	movl	%edx, %edi
	sall	$8, %edi
	subl	%edx, %edi
	subss	%xmm0, %xmm1
	cvttss2si	%xmm1, %ecx
	cvtsi2ssq	%rdi, %xmm1
	movl	%esi, %edi
	sall	$8, %edi
	subl	%esi, %edi
	movzbl	%cl, %ecx
	subss	%xmm0, %xmm1
	cvttss2si	%xmm1, %edx
	cvtsi2ssq	%rdi, %xmm1
	movzbl	%dl, %edx
	subss	%xmm0, %xmm1
	jmp	.L231
.LVL121:
	.p2align 4,,10
	.p2align 3
.L238:
.LBE1209:
	.loc 8 229 0
	movl	$255, %r8d
	xorl	%ecx, %ecx
	xorl	%edx, %edx
	xorl	%esi, %esi
	jmp	.L230
.LVL122:
	.p2align 4,,10
	.p2align 3
.L138:
.LBE1210:
.LBE1206:
.LBE1085:
	.loc 8 191 0
	addl	$8, %r12d
.LVL123:
	cmpl	%r12d, 44(%rsp)
	ja	.L96
.LVL124:
.L140:
.LBE1228:
.LBB1229:
	.loc 8 254 0
	movl	44(%rsp), %r9d
	cmpl	(%rbx), %r9d
	leaq	80(%rsp), %rbp
	movl	%r9d, (%rsp)
	jb	.L199
	jmp	.L98
.LVL125:
	.p2align 4,,10
	.p2align 3
.L144:
.LBB1230:
.LBB1231:
	.loc 8 270 0
	movl	$255, %r8d
	xorl	%ecx, %ecx
	xorl	%edx, %edx
	xorl	%esi, %esi
.LVL126:
	.p2align 4,,10
	.p2align 3
.L232:
	movq	%rbp, %rdi
	call	_ZN2sf5ColorC1Ehhhh@PLT
.LVL127:
	movq	32(%rbx), %rdi
	movl	(%rsp), %esi
	movq	%rbp, %rcx
	movl	%r13d, %edx
	call	_ZN2sf5Image8SetPixelEjjRKNS_5ColorE@PLT
.LVL128:
.LBE1231:
.LBE1230:
	.loc 8 254 0
	addl	$1, (%rsp)
	movl	(%rsp), %r9d
	cmpl	(%rbx), %r9d
	jae	.L98
.LVL129:
.L199:
.LBB1247:
.LBB1237:
	.loc 8 259 0
	movl	12(%rbx), %r12d
.LBE1237:
	.loc 8 255 0
	movss	16(%rbx), %xmm1
	movss	4(%rbx), %xmm0
.LVL130:
.LBB1243:
	.loc 8 259 0
	testl	%r12d, %r12d
	je	.L144
.LBE1243:
	.loc 8 255 0
	movl	(%rsp), %edx
	.loc 8 260 0
	xorl	%r15d, %r15d
	.loc 8 255 0
	cvtsi2ssq	%rdx, %xmm5
	divss	%xmm1, %xmm5
	addss	%xmm0, %xmm5
	.loc 8 256 0
	xorps	%xmm0, %xmm0
.LVL131:
	.loc 8 257 0
	movaps	%xmm0, %xmm1
.LVL132:
	.loc 8 22 0
	movaps	%xmm0, %xmm4
	movaps	%xmm0, %xmm3
.LVL133:
	.p2align 4,,10
	.p2align 3
.L145:
.LBB1244:
.LBB1238:
	.loc 8 264 0
	mulss	%xmm0, %xmm1
.LVL134:
	.loc 8 263 0
	movaps	%xmm5, %xmm2
.LBE1238:
	.loc 8 259 0
	addl	$1, %r15d
.LVL135:
.LBB1239:
	.loc 8 263 0
	subss	%xmm4, %xmm2
.LBE1239:
	.loc 8 259 0
	cmpl	%r12d, %r15d
.LBB1240:
	.loc 8 264 0
	addss	%xmm1, %xmm1
	.loc 8 263 0
	addss	%xmm3, %xmm2
.LVL136:
	.loc 8 264 0
	addss	40(%rsp), %xmm1
.LVL137:
.LBE1240:
	.loc 8 259 0
	je	.L144
.LVL138:
	.loc 8 22 0
	movaps	%xmm2, %xmm3
	movaps	%xmm1, %xmm4
	.loc 8 259 0
	movss	.LC3(%rip), %xmm6
	.loc 8 22 0
	mulss	%xmm2, %xmm3
.LVL139:
	mulss	%xmm1, %xmm4
.LBB1241:
.LBB1242:
	.loc 8 27 0
	movaps	%xmm3, %xmm0
.LVL140:
	addss	%xmm4, %xmm0
.LBE1242:
.LBE1241:
	.loc 8 259 0
	comiss	%xmm0, %xmm6
	ja	.L183
.LVL141:
.LBE1244:
.LBB1245:
.LBB1232:
.LBB1233:
.LBB1234:
	.file 12 "/usr/lib/gcc/x86_64-redhat-linux/4.7.2/../../../../include/c++/4.7.2/cmath"
	.loc 12 361 0
	call	__logf_finite@PLT
.LVL142:
.LBE1234:
.LBE1233:
	.loc 8 273 0
	mulss	.LC4(%rip), %xmm0
.LVL143:
	.loc 8 274 0
	addl	$1, %r15d
.LVL144:
.LBB1235:
.LBB1236:
	.loc 12 1467 0
	call	__log2f_finite@PLT
.LVL145:
.LBE1236:
.LBE1235:
	.loc 8 274 0
	cvtsi2ssq	%r15, %xmm1
	movl	%r12d, %eax
	.loc 8 282 0
	movl	$255, %r8d
	.loc 8 274 0
	subss	%xmm0, %xmm1
	cvtsi2ssq	%rax, %xmm0
	.loc 8 282 0
	movq	24(%rbx), %rax
	.loc 8 274 0
	mulss	.LC1(%rip), %xmm1
	.loc 8 282 0
	movl	8(%rax), %edx
	.loc 8 274 0
	divss	%xmm0, %xmm1
.LVL146:
	.loc 8 282 0
	cvtsi2ssq	%rdx, %xmm0
	movl	4(%rax), %edx
	movl	(%rax), %eax
	mulss	%xmm1, %xmm0
	cvttss2si	%xmm0, %ecx
	cvtsi2ssq	%rdx, %xmm0
	movzbl	%cl, %ecx
	mulss	%xmm1, %xmm0
	cvttss2si	%xmm0, %edx
	cvtsi2ssq	%rax, %xmm0
	movzbl	%dl, %edx
	mulss	%xmm1, %xmm0
	cvttss2si	%xmm0, %esi
	movzbl	%sil, %esi
	jmp	.L232
.LVL147:
	.p2align 4,,10
	.p2align 3
.L183:
.LBE1232:
.LBE1245:
.LBB1246:
	.loc 8 263 0
	movaps	%xmm2, %xmm0
	jmp	.L145
.LVL148:
	.p2align 4,,10
	.p2align 3
.L182:
.LBE1246:
.LBE1247:
.LBE1229:
.LBB1248:
.LBB1213:
.LBB1211:
	.loc 8 204 0
	xorps	%xmm0, %xmm0
.LVL149:
	xorl	%eax, %eax
	pxor	%xmm12, %xmm12
.LBB1098:
.LBB1099:
.LBB1100:
	.loc 11 1052 0
	movaps	%xmm15, 16(%rsp)
.LBE1100:
.LBE1099:
.LBE1098:
	.loc 8 204 0
	movaps	%xmm0, %xmm5
	movaps	%xmm0, %xmm1
	movdqa	%xmm12, %xmm13
	movaps	%xmm0, %xmm4
.LVL150:
.LBB1182:
.LBB1108:
.LBB1101:
	.loc 11 1052 0
	pxor	%xmm14, %xmm14
	movaps	48(%rsp), %xmm15
.LVL151:
	jmp	.L115
.LVL152:
	.p2align 4,,10
	.p2align 3
.L173:
.LBE1101:
.LBE1108:
.LBE1182:
	.loc 8 204 0
	movl	128(%rsp), %ecx
	testl	%ecx, %ecx
	jne	.L117
	movl	132(%rsp), %r15d
	testl	%r15d, %r15d
	jne	.L117
	movl	136(%rsp), %r11d
	testl	%r11d, %r11d
	jne	.L117
	movl	140(%rsp), %r10d
	testl	%r10d, %r10d
	jne	.L117
	movl	144(%rsp), %r9d
	testl	%r9d, %r9d
	jne	.L117
	movl	148(%rsp), %r8d
	testl	%r8d, %r8d
	jne	.L117
	movl	152(%rsp), %edi
	testl	%edi, %edi
	jne	.L117
	movl	156(%rsp), %esi
	testl	%esi, %esi
	je	.L116
	.p2align 4,,10
	.p2align 3
.L117:
.LBE1211:
.LBE1213:
.LBE1248:
.LBE1083:
.LBE1253:
.LBE1256:
.LBE1259:
.LBE1079:
.LBE1078:
.LBB1264:
.LBB962:
	.loc 2 165 0
	movaps	%xmm11, %xmm5
	movaps	%xmm9, %xmm4
.LVL153:
.L115:
.LBE962:
.LBE1264:
.LBB1265:
.LBB1262:
.LBB1260:
.LBB1257:
.LBB1254:
.LBB1251:
.LBB1249:
.LBB1214:
.LBB1212:
.LBB1183:
.LBB1109:
.LBB1110:
	.loc 9 170 0
	movaps	%xmm5, %xmm11
.LBE1110:
.LBE1109:
.LBE1183:
	.loc 8 204 0
	addl	$1, %eax
.LBB1184:
.LBB1124:
.LBB1111:
	.loc 9 170 0
	movaps	%xmm4, %xmm9
.LBE1111:
.LBE1124:
.LBE1184:
	.loc 8 204 0
	cmpl	%edx, %eax
.LBB1185:
.LBB1125:
.LBB1112:
	.loc 9 170 0
	mulps	%xmm5, %xmm11
.LBE1112:
.LBB1113:
	movaps	%xmm0, %xmm10
.LBE1113:
.LBB1114:
	mulps	%xmm4, %xmm9
.LBE1114:
.LBB1115:
	movaps	%xmm1, %xmm8
.LBE1115:
.LBE1125:
.LBB1126:
.LBB1102:
	.loc 11 1052 0
	movdqa	%xmm14, %xmm7
.LBE1102:
.LBE1126:
.LBB1127:
.LBB1116:
	.loc 9 170 0
	mulps	%xmm0, %xmm10
.LVL154:
.LBE1116:
.LBE1127:
.LBB1128:
.LBB1103:
.LBB1104:
	.loc 11 1052 0
	movdqa	%xmm14, %xmm6
.LBE1104:
.LBE1103:
.LBE1128:
.LBB1129:
.LBB1117:
	.loc 9 158 0
	movaps	%xmm11, %xmm2
.LBE1117:
.LBB1118:
	.loc 9 170 0
	mulps	%xmm1, %xmm8
.LVL155:
.LBE1118:
.LBB1119:
.LBB1120:
	.loc 9 158 0
	movaps	%xmm9, %xmm3
.LBE1120:
.LBE1119:
.LBE1129:
.LBB1130:
.LBB1131:
	.loc 9 170 0
	mulps	%xmm0, %xmm5
.LVL156:
.LBE1131:
.LBE1130:
.LBB1134:
.LBB1122:
	.loc 9 158 0
	addps	%xmm10, %xmm2
.LVL157:
.LBE1122:
.LBE1134:
.LBB1135:
.LBB1132:
.LBB1133:
	.loc 9 170 0
	mulps	%xmm1, %xmm4
.LVL158:
.LBE1133:
.LBE1132:
.LBE1135:
.LBB1136:
.LBB1123:
.LBB1121:
	.loc 9 158 0
	addps	%xmm8, %xmm3
.LVL159:
.LBE1121:
.LBE1123:
.LBE1136:
.LBB1137:
.LBB1138:
	movaps	%xmm5, %xmm0
.LBE1138:
.LBE1137:
.LBB1144:
.LBB1145:
	.loc 9 164 0
	subps	%xmm10, %xmm11
.LBE1145:
.LBE1144:
.LBB1148:
.LBB1139:
.LBB1140:
	.loc 9 158 0
	movaps	%xmm4, %xmm1
.LVL160:
.LBE1140:
.LBE1139:
.LBE1148:
.LBB1149:
.LBB1146:
.LBB1147:
	.loc 9 164 0
	subps	%xmm8, %xmm9
.LVL161:
.LBE1147:
.LBE1146:
.LBE1149:
.LBB1150:
.LBB1142:
	.loc 9 158 0
	addps	%xmm15, %xmm0
.LBE1142:
.LBB1143:
.LBB1141:
	addps	%xmm15, %xmm1
.LBE1141:
.LBE1143:
.LBE1150:
.LBB1151:
.LBB1152:
	.loc 9 340 0
	cmpltps	.LC5(%rip), %xmm2
.LVL162:
.LBE1152:
.LBB1153:
.LBB1154:
.LBB1155:
	cmpltps	.LC5(%rip), %xmm3
.LVL163:
.LBE1155:
.LBE1154:
.LBE1153:
.LBE1151:
.LBB1156:
.LBB1106:
	.loc 11 1052 0
	psubd	%xmm2, %xmm7
.LVL164:
.LBE1106:
.LBE1156:
.LBB1157:
.LBB1158:
.LBB1159:
	.loc 11 697 0
	movdqa	%xmm2, 144(%rsp)
.LBE1159:
.LBE1158:
.LBE1157:
.LBB1161:
.LBB1162:
	.loc 11 1004 0
	paddd	%xmm12, %xmm7
.LBE1162:
.LBE1161:
.LBB1168:
.LBB1169:
	.loc 9 158 0
	addps	16(%rsp), %xmm11
.LBE1169:
.LBE1168:
.LBB1172:
.LBB1107:
.LBB1105:
	.loc 11 1052 0
	psubd	%xmm3, %xmm6
.LVL165:
.LBE1105:
.LBE1107:
.LBE1172:
.LBB1173:
.LBB1163:
	.loc 11 1004 0
	movdqa	%xmm7, %xmm12
.LVL166:
.LBE1163:
.LBB1164:
.LBB1165:
	paddd	%xmm13, %xmm6
.LVL167:
.LBE1165:
.LBE1164:
.LBE1173:
.LBB1174:
.LBB1160:
	.loc 11 697 0
	movdqa	%xmm3, 128(%rsp)
.LBE1160:
.LBE1174:
.LBB1175:
.LBB1167:
.LBB1166:
	.loc 11 1004 0
	movdqa	%xmm6, %xmm13
.LVL168:
.LBE1166:
.LBE1167:
.LBE1175:
.LBB1176:
.LBB1177:
	.loc 9 158 0
	addps	%xmm5, %xmm0
.LBE1177:
.LBE1176:
.LBB1180:
.LBB1170:
.LBB1171:
	addps	(%rsp), %xmm9
.LVL169:
.LBE1171:
.LBE1170:
.LBE1180:
.LBB1181:
.LBB1178:
.LBB1179:
	addps	%xmm4, %xmm1
.LVL170:
.LBE1179:
.LBE1178:
.LBE1181:
.LBE1185:
	.loc 8 204 0
	jne	.L173
	jmp	.L116
.LVL171:
	.p2align 4,,10
	.p2align 3
.L98:
.LBE1212:
.LBE1214:
.LBE1249:
.LBE1251:
	.loc 8 185 0
	movq	72(%rsp), %r9
.LVL172:
	addl	$1, %r13d
.LVL173:
	cmpl	(%r9), %r13d
	jb	.L198
	movzbl	160(%rsp), %eax
.LVL174:
.L93:
.LBE1254:
.LBE1257:
.LBE1260:
.LBE1262:
.LBE1265:
.LBB1266:
.LBB1267:
	.loc 2 179 0
	movzbl	162(%rsp), %edx
	.loc 2 180 0
	addl	$7, %eax
	andl	$7, %eax
	movb	%al, 160(%rsp)
	.loc 2 179 0
	subl	$1, %edx
	movb	%dl, 162(%rsp)
.LVL175:
.L92:
.LBE1267:
.LBE1266:
	.loc 2 254 0
	testb	%dl, %dl
	jne	.L240
.LVL176:
.L186:
.LBE942:
.LBE1455:
.LBE1462:
.LBE1466:
	.loc 1 110 0
	addq	$312, %rsp
	.cfi_remember_state
	.cfi_def_cfa_offset 56
	xorl	%eax, %eax
	popq	%rbx
	.cfi_def_cfa_offset 48
	popq	%rbp
	.cfi_def_cfa_offset 40
	popq	%r12
	.cfi_def_cfa_offset 32
	popq	%r13
	.cfi_def_cfa_offset 24
	popq	%r14
	.cfi_def_cfa_offset 16
.LVL177:
	popq	%r15
	.cfi_def_cfa_offset 8
	ret
.LVL178:
.L235:
	.cfi_restore_state
.LBB1467:
.LBB1463:
.LBB1456:
.LBB1276:
.LBB1268:
.LBB963:
.LBB960:
	.loc 2 171 0
	testq	%rcx, %rcx
	jne	.L212
	movslq	%r10d, %rcx
.LVL179:
	jmp	.L82
.LVL180:
	.p2align 4,,10
	.p2align 3
.L169:
.LBE960:
.LBE963:
.LBE1268:
.LBB1269:
.LBB974:
	.loc 2 391 0
	movb	$0, 9(%r9)
.L229:
	movzbl	160(%rsp), %eax
	movzbl	%al, %edx
	salq	$4, %rdx
	leaq	176(%rsp,%rdx), %rdx
	movq	%rdx, 72(%rsp)
	movl	4(%rdx), %r13d
	movl	(%rdx), %ecx
	jmp	.L86
.LVL181:
.L237:
.LBE974:
.LBE1269:
.LBB1270:
.LBB1076:
.LBB977:
.LBB978:
.LBB979:
.LBB980:
.LBB981:
	.loc 3 933 0
	movl	$16, %esi
	movq	%r14, %rdi
.LVL182:
	call	_ZNK3tbb8internal27allocate_continuation_proxy8allocateEm@PLT
.LVL183:
.LBE981:
.LBE980:
.LBB982:
.LBB983:
	.loc 2 110 0
	leaq	16+_ZTVN3tbb10interface68internal9flag_taskE.local.147(%rip), %rdx
.LBB984:
.LBB985:
	.loc 3 522 0
	movb	$1, -11(%rax)
.LBE985:
.LBE984:
	.loc 2 110 0
	movq	%rdx, (%rax)
.LVL184:
.LBB986:
.LBB987:
.LBB988:
.LBB989:
	.loc 4 584 0
.LBE989:
.LBE988:
.LBE987:
.LBE986:
.LBE983:
.LBE982:
.LBE979:
.LBE978:
.LBB997:
.LBB998:
	.loc 3 652 0
	movq	$2, -24(%rax)
.LBE998:
.LBE997:
.LBB999:
.LBB1000:
	.loc 2 194 0
	movzbl	161(%rsp), %ebp
.LBE1000:
.LBE999:
.LBB1002:
.LBB1003:
	.loc 3 941 0
	movl	$96, %esi
.LBE1003:
.LBE1002:
.LBB1007:
.LBB996:
.LBB995:
.LBB994:
.LBB993:
.LBB992:
.LBB991:
.LBB990:
	.loc 4 585 0
	movb	$0, 8(%rax)
.LVL185:
.LBE990:
.LBE991:
.LBE992:
.LBE993:
.LBE994:
.LBE995:
.LBE996:
.LBE1007:
.LBB1008:
.LBB1004:
	.loc 3 941 0
	movq	%rax, %rdi
.LBE1004:
.LBE1008:
.LBB1009:
.LBB1010:
	.loc 3 735 0
	movq	%rax, -32(%r14)
.LVL186:
.LBE1010:
.LBE1009:
.LBB1011:
.LBB1012:
	.loc 2 199 0
	movzbl	%bpl, %edx
	movzbl	163(%rsp,%rdx), %ebx
.LVL187:
.LBE1012:
.LBE1011:
.LBB1013:
.LBB1005:
	.loc 3 941 0
	call	_ZNK3tbb8internal20allocate_child_proxy8allocateEm@PLT
.LVL188:
.LBE1005:
.LBE1013:
.LBB1014:
.LBB1015:
	.loc 1 67 0
	leaq	16+_ZTVN3tbb10interface68internal9start_forINS_13blocked_rangeIjEE13ker_float_sseNS_20affinity_partitionerEEE.local.146(%rip), %rcx
.LBB1016:
.LBB1017:
	.loc 3 522 0
	movb	$1, -11(%rax)
.LBE1017:
.LBE1016:
.LBE1015:
.LBE1014:
.LBB1054:
.LBB1006:
	.loc 3 941 0
	movq	%rax, %rsi
.LVL189:
.LBE1006:
.LBE1054:
.LBB1055:
.LBB1050:
	.loc 1 67 0
	movq	%rcx, (%rax)
.LBE1050:
.LBE1055:
.LBB1056:
.LBB1001:
	.loc 2 194 0
	movq	%rbp, %rax
.LVL190:
.LBE1001:
.LBE1056:
.LBB1057:
.LBB1051:
	.loc 1 67 0
	salq	$4, %rax
	movq	176(%rsp,%rax), %rdx
	movq	%rdx, 8(%rsi)
	movq	184(%rsp,%rax), %rax
.LBB1018:
.LBB1019:
.LBB1020:
.LBB1021:
	.loc 2 291 0
	movq	64(%r14), %rdx
.LBE1021:
.LBE1020:
.LBE1019:
.LBE1018:
	.loc 1 67 0
	movq	%rax, 16(%rsi)
	movq	24(%r14), %rax
.LBB1041:
.LBB1036:
.LBB1027:
.LBB1024:
	.loc 2 291 0
	shrq	%rdx
.LBE1024:
.LBE1027:
.LBE1036:
.LBE1041:
	.loc 1 67 0
	movq	%rax, 24(%rsi)
	movq	32(%r14), %rax
	movq	%rax, 32(%rsi)
	movq	40(%r14), %rax
	movq	%rax, 40(%rsi)
	movq	48(%r14), %rax
	movq	%rax, 48(%rsi)
	movq	56(%r14), %rax
.LBB1042:
.LBB1037:
.LBB1028:
.LBB1025:
	.loc 2 291 0
	movq	%rdx, 64(%rsi)
.LBE1025:
.LBE1028:
.LBE1037:
.LBE1042:
	.loc 1 67 0
	movq	%rax, 56(%rsi)
.LVL191:
.LBB1043:
.LBB1038:
.LBB1029:
.LBB1026:
	.loc 2 286 0
	movzbl	72(%r14), %eax
	movb	%al, 72(%rsi)
	.loc 2 292 0
	movq	64(%r14), %rax
	subq	%rdx, %rax
	movq	%rax, 64(%r14)
	.loc 2 293 0
	movq	64(%rsi), %rcx
	testq	%rcx, %rcx
	je	.L88
.LVL192:
	xorl	%edx, %edx
	divq	%rcx
.LVL193:
.LBB1022:
.LBB1023:
	.loc 7 31 0
#APP
# 31 "/opt/intel/composer_xe_2013.2.146/tbb/include/tbb/machine/gcc_ia32_common.h" 1
	bsr %rax,%rax
# 0 "" 2
.LVL194:
#NO_APP
.LBE1023:
.LBE1022:
	.loc 2 293 0
	addb	%al, 72(%r14)
.LVL195:
.L88:
.LBE1026:
.LBE1029:
	.loc 2 368 0
	movl	80(%r14), %eax
	.loc 2 366 0
	movq	88(%r14), %rdx
	.loc 2 368 0
	movl	%eax, 80(%rsi)
	.loc 2 369 0
	movl	84(%r14), %eax
	.loc 2 366 0
	movq	%rdx, 88(%rsi)
	.loc 2 369 0
	movl	%eax, 80(%r14)
.LBE1038:
	.loc 5 1078 0
	movl	80(%rsi), %ecx
.LBB1039:
	.loc 2 369 0
	movl	%eax, 76(%rsi)
.LVL196:
.LBB1030:
.LBB1031:
	.loc 2 347 0
	movl	%ecx, %edi
	subl	%eax, %edi
	movl	%edi, %eax
	shrl	%eax
.LVL197:
	.loc 2 349 0
	movl	%eax, %edi
	andl	$-16, %edi
	cmpl	$17, %eax
	cmovae	%edi, %eax
.LVL198:
	.loc 2 350 0
	subl	%eax, %ecx
	movl	%ecx, 84(%rsi)
.LVL199:
.LBE1031:
.LBE1030:
.LBE1039:
	.loc 5 1078 0
	movl	80(%r14), %ecx
.LVL200:
.LBB1040:
.LBB1032:
.LBB1033:
	.loc 2 347 0
	movl	%ecx, %eax
.LVL201:
	subl	76(%r14), %eax
	shrl	%eax
.LVL202:
	.loc 2 349 0
	movl	%eax, %edi
.LVL203:
	andl	$-16, %edi
	cmpl	$17, %eax
	cmovae	%edi, %eax
.LVL204:
	.loc 2 350 0
	subl	%eax, %ecx
.LBE1033:
.LBE1032:
	.loc 2 371 0
	movzbl	73(%r14), %eax
.LVL205:
.LBB1035:
.LBB1034:
	.loc 2 350 0
	movl	%ecx, 84(%r14)
.LBE1034:
.LBE1035:
	.loc 2 371 0
	movb	%al, 73(%rsi)
.LBE1040:
.LBE1043:
.LBE1051:
	.loc 5 1078 0
	movl	76(%rsi), %eax
.LVL206:
.LBB1052:
.LBB1044:
.LBB1045:
	.loc 2 374 0
	cmpl	80(%rsi), %eax
	jae	.L91
	.loc 2 375 0
	movzwl	(%rdx,%rax,2), %eax
.LVL207:
.LBB1046:
.LBB1047:
	.loc 3 780 0
	movw	%ax, -10(%rsi)
.LVL208:
.L91:
.LBE1047:
.LBE1046:
.LBE1045:
.LBE1044:
.LBE1052:
.LBE1057:
.LBB1058:
.LBB1059:
	.loc 3 895 0
	movq	-40(%rsi), %rdi
.LVL209:
.LBE1059:
.LBE1058:
.LBB1061:
.LBB1053:
.LBB1048:
.LBB1049:
	.loc 2 334 0
	subb	%bl, 72(%rsi)
.LVL210:
.LBE1049:
.LBE1048:
.LBE1053:
.LBE1061:
.LBB1062:
.LBB1060:
	.loc 3 895 0
	leaq	-8(%rsi), %rdx
	movq	(%rdi), %rax
	call	*(%rax)
.LVL211:
.LBE1060:
.LBE1062:
.LBB1063:
.LBB1064:
	.loc 2 185 0
	movzbl	162(%rsp), %edx
	.loc 2 186 0
	movzbl	161(%rsp), %eax
	.loc 2 185 0
	subl	$1, %edx
	.loc 2 186 0
	addl	$1, %eax
	andl	$7, %eax
.LBE1064:
.LBE1063:
.LBE977:
.LBE1076:
.LBE1270:
	.loc 2 254 0
	testb	%dl, %dl
.LBB1271:
.LBB1077:
.LBB1067:
.LBB1066:
.LBB1065:
	.loc 2 185 0
	movb	%dl, 162(%rsp)
	.loc 2 186 0
	movb	%al, 161(%rsp)
.LVL212:
.LBE1065:
.LBE1066:
.LBE1067:
.LBE1077:
.LBE1271:
	.loc 2 254 0
	je	.L186
.LVL213:
.L240:
.LBB1272:
.LBB1273:
	.loc 3 811 0
	movq	-56(%r14), %rdi
	call	_ZNK3tbb18task_group_context28is_group_execution_cancelledEv@PLT
.LVL214:
.LBE1273:
.LBE1272:
	.loc 2 254 0
	testb	%al, %al
	jne	.L186
	movzbl	72(%r14), %edi
	movzbl	162(%rsp), %edx
	jmp	.L163
.LVL215:
.L234:
.LBE1276:
.LBE1456:
.LBB1457:
.LBB933:
	.loc 2 238 0
	movq	64(%rsp), %r9
	cmpq	$1, (%r9)
	ja	.L11
	jmp	.L6
.LVL216:
.L5:
.LBE933:
.LBE1457:
.LBB1458:
.LBB1277:
.LBB1278:
.LBB1279:
.LBB1280:
	.loc 8 184 0
	movl	24(%r14), %r9d
.LBE1280:
.LBE1279:
	.loc 1 102 0
	leaq	24(%r14), %rbx
.LVL217:
.LBB1449:
.LBB1447:
	.loc 8 184 0
	andl	$-8, %r9d
.LBB1281:
	.loc 8 185 0
	cmpl	%eax, %r13d
.LBE1281:
	.loc 8 184 0
	movl	%r9d, 44(%rsp)
.LVL218:
.LBB1445:
	.loc 8 185 0
	jae	.L186
.LVL219:
.L196:
.LBB1282:
	.loc 8 187 0
	movl	%r13d, %eax
	.loc 8 188 0
	movss	20(%rbx), %xmm1
	.loc 8 187 0
	cvtsi2ssq	%rax, %xmm2
.LVL220:
.LBB1283:
	.loc 8 191 0
	movl	44(%rsp), %esi
.LBE1283:
.LBB1411:
.LBB1412:
	.loc 9 176 0
	movaps	%xmm1, %xmm4
.LBE1412:
.LBE1411:
	.loc 8 188 0
	movss	8(%rbx), %xmm0
.LBB1416:
.LBB1413:
	.loc 9 176 0
	shufps	$0, %xmm4, %xmm4
.LBE1413:
.LBE1416:
.LBB1417:
	.loc 8 191 0
	testl	%esi, %esi
.LBE1417:
.LBB1418:
.LBB1414:
	.loc 9 176 0
	movaps	%xmm2, %xmm3
.LBE1414:
.LBE1418:
	.loc 8 189 0
	divss	%xmm1, %xmm2
.LVL221:
.LBB1419:
.LBB1415:
	.loc 9 176 0
	shufps	$0, %xmm3, %xmm3
.LVL222:
	movaps	%xmm3, 48(%rsp)
	movaps	48(%rsp), %xmm6
	divps	%xmm4, %xmm6
.LVL223:
.LBE1415:
.LBE1419:
.LBB1420:
.LBB1421:
	.loc 9 158 0
	movaps	%xmm0, %xmm4
.LBE1421:
.LBE1420:
	.loc 8 189 0
	addss	%xmm2, %xmm0
.LVL224:
	movss	%xmm0, 40(%rsp)
.LBB1423:
.LBB1422:
	.loc 9 158 0
	shufps	$0, %xmm4, %xmm4
.LVL225:
	movaps	%xmm4, %xmm3
.LVL226:
	addps	%xmm6, %xmm3
	movaps	%xmm3, 48(%rsp)
.LVL227:
.LBE1422:
.LBE1423:
.LBB1424:
	.loc 8 191 0
	je	.L60
	leaq	96(%rsp), %rax
.LVL228:
	leaq	80(%rsp), %rbp
	xorl	%r12d, %r12d
	movq	%rax, 32(%rsp)
.LVL229:
.L16:
.LBB1284:
	.loc 8 193 0
	leal	4(%r12), %eax
.LBB1285:
.LBB1286:
.LBB1287:
	.loc 9 866 0
	movss	16(%rbx), %xmm1
	shufps	$0, %xmm1, %xmm1
.LBE1287:
.LBE1286:
.LBE1285:
.LBB1296:
	.loc 8 204 0
	movl	12(%rbx), %edx
.LBE1296:
	.loc 8 193 0
	cvtsi2ssq	%rax, %xmm15
	leal	5(%r12), %eax
	cvtsi2ssq	%rax, %xmm2
	leal	6(%r12), %eax
.LBB1384:
.LBB1289:
.LBB1288:
	.loc 9 866 0
	movaps	%xmm1, %xmm0
.LVL230:
.LBE1288:
.LBE1289:
.LBE1384:
.LBB1385:
	.loc 8 204 0
	testl	%edx, %edx
.LBE1385:
	.loc 8 193 0
	cvtsi2ssq	%rax, %xmm3
	leal	7(%r12), %eax
	cvtsi2ssq	%rax, %xmm1
	movl	%r12d, %eax
.LBB1386:
.LBB1290:
	.loc 9 176 0
	unpcklps	%xmm2, %xmm15
	unpcklps	%xmm1, %xmm3
	movlhps	%xmm3, %xmm15
.LBE1290:
.LBE1386:
	.loc 8 193 0
	cvtsi2ssq	%rax, %xmm3
	leal	1(%r12), %eax
.LBB1387:
.LBB1291:
	.loc 9 176 0
	divps	%xmm0, %xmm15
.LVL231:
.LBE1291:
.LBE1387:
	.loc 8 193 0
	cvtsi2ssq	%rax, %xmm2
	leal	2(%r12), %eax
	cvtsi2ssq	%rax, %xmm4
	leal	3(%r12), %eax
	cvtsi2ssq	%rax, %xmm1
.LBB1388:
.LBB1292:
.LBB1293:
	.loc 9 176 0
	unpcklps	%xmm2, %xmm3
	unpcklps	%xmm1, %xmm4
	movlhps	%xmm4, %xmm3
.LBE1293:
.LBE1292:
.LBE1388:
.LBB1389:
.LBB1390:
.LBB1391:
	.loc 9 866 0
	movss	4(%rbx), %xmm4
.LBE1391:
.LBE1390:
.LBE1389:
.LBB1397:
.LBB1295:
.LBB1294:
	.loc 9 176 0
	divps	%xmm0, %xmm3
.LVL232:
.LBE1294:
.LBE1295:
.LBE1397:
.LBB1398:
.LBB1393:
.LBB1392:
	.loc 9 866 0
	shufps	$0, %xmm4, %xmm4
.LVL233:
	movaps	%xmm4, %xmm0
.LVL234:
.LBE1392:
.LBE1393:
.LBB1394:
	.loc 9 158 0
	addps	%xmm4, %xmm15
.LVL235:
.LBE1394:
.LBB1395:
.LBB1396:
	addps	%xmm3, %xmm0
.LVL236:
	movaps	%xmm0, (%rsp)
.LVL237:
.LBE1396:
.LBE1395:
.LBE1398:
.LBB1399:
	.loc 8 204 0
	jne	.L178
	.loc 10 1430 0
	pxor	%xmm12, %xmm12
	movdqa	%xmm12, %xmm13
.LVL238:
	.p2align 4,,10
	.p2align 3
.L36:
.LBE1399:
.LBB1400:
.LBB1401:
	.loc 11 697 0
	movdqa	%xmm12, 96(%rsp)
.LVL239:
.LBE1401:
.LBB1402:
.LBB1403:
	xorl	%r15d, %r15d
	movdqa	%xmm13, 112(%rsp)
.LVL240:
	jmp	.L59
.LVL241:
	.p2align 4,,10
	.p2align 3
.L242:
.LBE1403:
.LBE1402:
.LBE1400:
.LBB1404:
.LBB1405:
.LBB1406:
	.loc 8 240 0
	movl	8(%rsi), %edx
	cvtsi2ssq	%rdx, %xmm1
	movl	4(%rsi), %edx
	movl	(%rsi), %esi
	mulss	%xmm0, %xmm1
	cvttss2si	%xmm1, %ecx
	cvtsi2ssq	%rdx, %xmm1
	movzbl	%cl, %ecx
	mulss	%xmm0, %xmm1
	cvttss2si	%xmm1, %edx
	cvtsi2ssq	%rsi, %xmm1
	movzbl	%dl, %edx
	mulss	%xmm0, %xmm1
.L227:
	.loc 8 249 0
	cvttss2si	%xmm1, %esi
	movl	$255, %r8d
	movzbl	%sil, %esi
.LVL242:
.L226:
	movq	%rbp, %rdi
	call	_ZN2sf5ColorC1Ehhhh@PLT
.LVL243:
	movq	32(%rbx), %rdi
	.loc 1 106 0
	leal	(%r12,%r15), %esi
	.loc 8 249 0
	movq	%rbp, %rcx
	movl	%r13d, %edx
	addq	$1, %r15
.LVL244:
	call	_ZN2sf5Image8SetPixelEjjRKNS_5ColorE@PLT
.LVL245:
.LBE1406:
.LBE1405:
	.loc 8 224 0
	cmpq	$8, %r15
	je	.L58
	movl	36(%r14), %edx
.L59:
.LVL246:
.LBB1408:
	.loc 8 225 0
	movq	32(%rsp), %r9
	movl	(%r9,%r15,4), %ecx
	cmpl	%edx, %ecx
	je	.L241
.LBB1407:
	.loc 8 231 0
	cvtsi2ssq	%rcx, %xmm0
	.loc 8 240 0
	movq	24(%rbx), %rsi
	.loc 8 231 0
	cvtsi2ssq	%rdx, %xmm1
	mulss	.LC1(%rip), %xmm0
	divss	%xmm1, %xmm0
.LVL247:
	.loc 8 232 0
	movss	.LC2(%rip), %xmm1
	comiss	%xmm0, %xmm1
	ja	.L242
	.loc 8 249 0
	movl	8(%rsi), %edx
	movl	%edx, %ecx
	sall	$8, %ecx
	subl	%edx, %ecx
	movl	4(%rsi), %edx
	movl	(%rsi), %esi
	cvtsi2ssq	%rcx, %xmm1
	movl	%edx, %edi
	sall	$8, %edi
	subl	%edx, %edi
	subss	%xmm0, %xmm1
	cvttss2si	%xmm1, %ecx
	cvtsi2ssq	%rdi, %xmm1
	movl	%esi, %edi
	sall	$8, %edi
	subl	%esi, %edi
	movzbl	%cl, %ecx
	subss	%xmm0, %xmm1
	cvttss2si	%xmm1, %edx
	cvtsi2ssq	%rdi, %xmm1
	movzbl	%dl, %edx
	subss	%xmm0, %xmm1
	jmp	.L227
.LVL248:
	.p2align 4,,10
	.p2align 3
.L241:
.LBE1407:
	.loc 8 229 0
	movl	$255, %r8d
	xorl	%ecx, %ecx
	xorl	%edx, %edx
	xorl	%esi, %esi
	jmp	.L226
.LVL249:
.L58:
.LBE1408:
.LBE1404:
.LBE1284:
	.loc 8 191 0
	addl	$8, %r12d
.LVL250:
	cmpl	%r12d, 44(%rsp)
	ja	.L16
.LVL251:
.L60:
.LBE1424:
.LBB1425:
	.loc 8 254 0
	movl	44(%rsp), %r9d
	cmpl	(%rbx), %r9d
	leaq	80(%rsp), %rbp
	movl	%r9d, (%rsp)
	jb	.L197
	jmp	.L18
.LVL252:
	.p2align 4,,10
	.p2align 3
.L64:
.LBB1426:
.LBB1427:
	.loc 8 270 0
	movl	$255, %r8d
	xorl	%ecx, %ecx
	xorl	%edx, %edx
	xorl	%esi, %esi
.LVL253:
	.p2align 4,,10
	.p2align 3
.L228:
	movq	%rbp, %rdi
	call	_ZN2sf5ColorC1Ehhhh@PLT
.LVL254:
	movq	32(%rbx), %rdi
	movl	(%rsp), %esi
	movq	%rbp, %rcx
	movl	%r13d, %edx
	call	_ZN2sf5Image8SetPixelEjjRKNS_5ColorE@PLT
.LVL255:
.LBE1427:
.LBE1426:
	.loc 8 254 0
	addl	$1, (%rsp)
	movl	(%rsp), %r9d
	cmpl	(%rbx), %r9d
	jae	.L18
.LVL256:
.L197:
.LBB1443:
.LBB1433:
	.loc 8 259 0
	movl	12(%rbx), %r12d
.LBE1433:
	.loc 8 255 0
	movss	16(%rbx), %xmm1
	movss	4(%rbx), %xmm0
.LVL257:
.LBB1439:
	.loc 8 259 0
	testl	%r12d, %r12d
	je	.L64
.LBE1439:
	.loc 8 255 0
	movl	(%rsp), %edx
	.loc 8 260 0
	xorl	%r15d, %r15d
	.loc 8 255 0
	cvtsi2ssq	%rdx, %xmm5
	divss	%xmm1, %xmm5
	.loc 8 257 0
	xorps	%xmm1, %xmm1
.LVL258:
	.loc 8 255 0
	addss	%xmm0, %xmm5
	.loc 8 22 0
	movaps	%xmm1, %xmm4
	.loc 8 256 0
	movaps	%xmm1, %xmm0
.LVL259:
	.loc 8 22 0
	movaps	%xmm1, %xmm3
.LVL260:
	.p2align 4,,10
	.p2align 3
.L65:
.LBB1440:
.LBB1434:
	.loc 8 264 0
	mulss	%xmm0, %xmm1
.LVL261:
	.loc 8 263 0
	movaps	%xmm5, %xmm2
.LBE1434:
	.loc 8 259 0
	addl	$1, %r15d
.LVL262:
.LBB1435:
	.loc 8 263 0
	subss	%xmm4, %xmm2
.LBE1435:
	.loc 8 259 0
	cmpl	%r12d, %r15d
.LBB1436:
	.loc 8 264 0
	addss	%xmm1, %xmm1
	.loc 8 263 0
	addss	%xmm3, %xmm2
.LVL263:
	.loc 8 264 0
	addss	40(%rsp), %xmm1
.LVL264:
.LBE1436:
	.loc 8 259 0
	je	.L64
.LVL265:
	.loc 8 22 0
	movaps	%xmm2, %xmm3
	movaps	%xmm1, %xmm4
	.loc 8 259 0
	movss	.LC3(%rip), %xmm6
	.loc 8 22 0
	mulss	%xmm2, %xmm3
.LVL266:
	mulss	%xmm1, %xmm4
.LBB1437:
.LBB1438:
	.loc 8 27 0
	movaps	%xmm3, %xmm0
.LVL267:
	addss	%xmm4, %xmm0
.LBE1438:
.LBE1437:
	.loc 8 259 0
	comiss	%xmm0, %xmm6
	ja	.L179
.LVL268:
.LBE1440:
.LBB1441:
.LBB1428:
.LBB1429:
.LBB1430:
	.loc 12 361 0
	call	__logf_finite@PLT
.LVL269:
.LBE1430:
.LBE1429:
	.loc 8 273 0
	mulss	.LC4(%rip), %xmm0
.LVL270:
	.loc 8 274 0
	addl	$1, %r15d
.LVL271:
.LBB1431:
.LBB1432:
	.loc 12 1467 0
	call	__log2f_finite@PLT
.LVL272:
.LBE1432:
.LBE1431:
	.loc 8 274 0
	cvtsi2ssq	%r15, %xmm1
	movl	%r12d, %eax
	.loc 8 282 0
	movl	$255, %r8d
	.loc 8 274 0
	subss	%xmm0, %xmm1
	cvtsi2ssq	%rax, %xmm0
	.loc 8 282 0
	movq	24(%rbx), %rax
	.loc 8 274 0
	mulss	.LC1(%rip), %xmm1
	.loc 8 282 0
	movl	8(%rax), %edx
	.loc 8 274 0
	divss	%xmm0, %xmm1
.LVL273:
	.loc 8 282 0
	cvtsi2ssq	%rdx, %xmm0
	movl	4(%rax), %edx
	movl	(%rax), %eax
	mulss	%xmm1, %xmm0
	cvttss2si	%xmm0, %ecx
	cvtsi2ssq	%rdx, %xmm0
	movzbl	%cl, %ecx
	mulss	%xmm1, %xmm0
	cvttss2si	%xmm0, %edx
	cvtsi2ssq	%rax, %xmm0
	movzbl	%dl, %edx
	mulss	%xmm1, %xmm0
	cvttss2si	%xmm0, %esi
	movzbl	%sil, %esi
	jmp	.L228
.LVL274:
	.p2align 4,,10
	.p2align 3
.L179:
.LBE1428:
.LBE1441:
.LBB1442:
	.loc 8 263 0
	movaps	%xmm2, %xmm0
	jmp	.L65
.LVL275:
.L178:
.LBE1442:
.LBE1443:
.LBE1425:
.LBB1444:
.LBB1410:
.LBB1409:
	.loc 8 204 0
	xorps	%xmm6, %xmm6
	xorl	%eax, %eax
	pxor	%xmm13, %xmm13
.LBB1297:
.LBB1298:
.LBB1299:
	.loc 11 1052 0
	pxor	%xmm14, %xmm14
	movaps	%xmm15, 16(%rsp)
.LBE1299:
.LBE1298:
.LBE1297:
	.loc 8 204 0
	movaps	%xmm6, %xmm7
	movaps	%xmm6, %xmm1
	movdqa	%xmm13, %xmm12
	movaps	%xmm6, %xmm0
.LVL276:
.LBB1381:
.LBB1307:
.LBB1300:
	.loc 11 1052 0
	movaps	48(%rsp), %xmm15
.LVL277:
	.p2align 4,,10
	.p2align 3
.L35:
.LBE1300:
.LBE1307:
.LBB1308:
.LBB1309:
	.loc 9 170 0
	movaps	%xmm7, %xmm11
.LBE1309:
.LBE1308:
.LBE1381:
	.loc 8 204 0
	addl	$1, %eax
.LBB1382:
.LBB1323:
.LBB1310:
	.loc 9 170 0
	movaps	%xmm6, %xmm9
.LBE1310:
.LBE1323:
.LBE1382:
	.loc 8 204 0
	cmpl	%edx, %eax
.LBB1383:
.LBB1324:
.LBB1311:
	.loc 9 170 0
	mulps	%xmm7, %xmm11
.LBE1311:
.LBB1312:
	movaps	%xmm0, %xmm10
.LBE1312:
.LBB1313:
	mulps	%xmm6, %xmm9
.LBE1313:
.LBB1314:
	movaps	%xmm1, %xmm8
.LBE1314:
.LBE1324:
.LBB1325:
.LBB1301:
	.loc 11 1052 0
	movdqa	%xmm14, %xmm5
.LBE1301:
.LBE1325:
.LBB1326:
.LBB1315:
	.loc 9 170 0
	mulps	%xmm0, %xmm10
.LVL278:
.LBE1315:
.LBE1326:
.LBB1327:
.LBB1302:
.LBB1303:
	.loc 11 1052 0
	movdqa	%xmm14, %xmm4
.LBE1303:
.LBE1302:
.LBE1327:
.LBB1328:
.LBB1316:
	.loc 9 158 0
	movaps	%xmm11, %xmm2
.LBE1316:
.LBB1317:
	.loc 9 170 0
	mulps	%xmm1, %xmm8
.LVL279:
.LBE1317:
.LBB1318:
.LBB1319:
	.loc 9 158 0
	movaps	%xmm9, %xmm3
.LBE1319:
.LBE1318:
.LBE1328:
.LBB1329:
.LBB1330:
	.loc 9 170 0
	mulps	%xmm0, %xmm7
.LVL280:
.LBE1330:
.LBE1329:
.LBB1333:
.LBB1321:
	.loc 9 158 0
	addps	%xmm10, %xmm2
.LVL281:
.LBE1321:
.LBE1333:
.LBB1334:
.LBB1331:
.LBB1332:
	.loc 9 170 0
	mulps	%xmm1, %xmm6
.LVL282:
.LBE1332:
.LBE1331:
.LBE1334:
.LBB1335:
.LBB1322:
.LBB1320:
	.loc 9 158 0
	addps	%xmm8, %xmm3
.LVL283:
.LBE1320:
.LBE1322:
.LBE1335:
.LBB1336:
.LBB1337:
	movaps	%xmm7, %xmm0
.LBE1337:
.LBE1336:
.LBB1343:
.LBB1344:
	.loc 9 164 0
	subps	%xmm10, %xmm11
.LBE1344:
.LBE1343:
.LBB1347:
.LBB1338:
.LBB1339:
	.loc 9 158 0
	movaps	%xmm6, %xmm1
.LVL284:
.LBE1339:
.LBE1338:
.LBE1347:
.LBB1348:
.LBB1345:
.LBB1346:
	.loc 9 164 0
	subps	%xmm8, %xmm9
.LVL285:
.LBE1346:
.LBE1345:
.LBE1348:
.LBB1349:
.LBB1341:
	.loc 9 158 0
	addps	%xmm15, %xmm0
.LBE1341:
.LBB1342:
.LBB1340:
	addps	%xmm15, %xmm1
.LBE1340:
.LBE1342:
.LBE1349:
.LBB1350:
.LBB1351:
	.loc 9 340 0
	cmpltps	.LC5(%rip), %xmm2
.LVL286:
.LBE1351:
.LBB1352:
.LBB1353:
.LBB1354:
	cmpltps	.LC5(%rip), %xmm3
.LVL287:
.LBE1354:
.LBE1353:
.LBE1352:
.LBE1350:
.LBB1355:
.LBB1305:
	.loc 11 1052 0
	psubd	%xmm2, %xmm5
.LVL288:
.LBE1305:
.LBE1355:
.LBB1356:
.LBB1357:
.LBB1358:
	.loc 11 697 0
	movdqa	%xmm2, 144(%rsp)
.LBE1358:
.LBE1357:
.LBE1356:
.LBB1360:
.LBB1361:
	.loc 11 1004 0
	paddd	%xmm13, %xmm5
.LBE1361:
.LBE1360:
.LBB1367:
.LBB1368:
	.loc 9 158 0
	addps	16(%rsp), %xmm11
.LBE1368:
.LBE1367:
.LBB1371:
.LBB1306:
.LBB1304:
	.loc 11 1052 0
	psubd	%xmm3, %xmm4
.LVL289:
.LBE1304:
.LBE1306:
.LBE1371:
.LBB1372:
.LBB1362:
	.loc 11 1004 0
	movdqa	%xmm5, %xmm13
.LVL290:
.LBE1362:
.LBB1363:
.LBB1364:
	paddd	%xmm12, %xmm4
.LVL291:
.LBE1364:
.LBE1363:
.LBE1372:
.LBB1373:
.LBB1359:
	.loc 11 697 0
	movdqa	%xmm3, 128(%rsp)
.LBE1359:
.LBE1373:
.LBB1374:
.LBB1366:
.LBB1365:
	.loc 11 1004 0
	movdqa	%xmm4, %xmm12
.LVL292:
.LBE1365:
.LBE1366:
.LBE1374:
.LBB1375:
.LBB1376:
	.loc 9 158 0
	addps	%xmm7, %xmm0
.LBE1376:
.LBE1375:
.LBB1379:
.LBB1369:
.LBB1370:
	addps	(%rsp), %xmm9
.LVL293:
.LBE1370:
.LBE1369:
.LBE1379:
.LBB1380:
.LBB1377:
.LBB1378:
	addps	%xmm6, %xmm1
.LVL294:
.LBE1378:
.LBE1377:
.LBE1380:
.LBE1383:
	.loc 8 204 0
	je	.L36
	movl	128(%rsp), %ecx
	testl	%ecx, %ecx
	jne	.L37
	movl	132(%rsp), %ecx
	testl	%ecx, %ecx
	jne	.L37
	movl	136(%rsp), %r15d
	testl	%r15d, %r15d
	jne	.L37
	movl	140(%rsp), %r11d
	testl	%r11d, %r11d
	jne	.L37
	movl	144(%rsp), %r10d
	testl	%r10d, %r10d
	jne	.L37
	movl	148(%rsp), %r9d
	testl	%r9d, %r9d
	jne	.L37
	movl	152(%rsp), %r8d
	testl	%r8d, %r8d
	jne	.L37
	movl	156(%rsp), %edi
	testl	%edi, %edi
	je	.L36
	.p2align 4,,10
	.p2align 3
.L37:
.LBE1409:
.LBE1410:
.LBE1444:
.LBE1282:
.LBE1445:
.LBE1447:
.LBE1449:
.LBE1278:
.LBE1277:
.LBB1452:
.LBB1274:
.LBB1263:
.LBB1261:
.LBB1258:
.LBB1255:
.LBB1252:
.LBB1250:
	.loc 8 254 0
	movaps	%xmm9, %xmm6
.LVL295:
	movaps	%xmm11, %xmm7
	jmp	.L35
.LVL296:
.L18:
.LBE1250:
.LBE1252:
.LBE1255:
.LBE1258:
.LBE1261:
.LBE1263:
.LBE1274:
.LBE1452:
.LBB1453:
.LBB1451:
.LBB1450:
.LBB1448:
.LBB1446:
	.loc 8 185 0
	movq	72(%rsp), %r9
.LVL297:
	addl	$1, %r13d
.LVL298:
	cmpl	(%r9), %r13d
	jb	.L196
	jmp	.L186
.LVL299:
.L212:
.LBE1446:
.LBE1448:
.LBE1450:
.LBE1451:
.LBE1453:
.LBB1454:
.LBB1275:
.LBB964:
.LBB961:
	.loc 2 171 0
	xorl	%eax, %eax
	jmp	.L81
.LBE961:
.LBE964:
.LBE1275:
.LBE1454:
.LBE1458:
.LBE1463:
.LBE1467:
	.cfi_endproc
.LFE14:
	.size	_ZN3tbb10interface68internal9start_forINS_13blocked_rangeIjEE13ker_float_sseNS_20affinity_partitionerEE7executeEv.local.30, .-_ZN3tbb10interface68internal9start_forINS_13blocked_rangeIjEE13ker_float_sseNS_20affinity_partitionerEE7executeEv.local.30
	.hidden	_ZTVN3tbb10interface68internal9flag_taskE.local.147
	.globl	_ZTVN3tbb10interface68internal9flag_taskE.local.147
	.section	.data.rel.ro,"aw",@progbits
	.align 32
	.type	_ZTVN3tbb10interface68internal9flag_taskE.local.147, @object
	.size	_ZTVN3tbb10interface68internal9flag_taskE.local.147, 48
_ZTVN3tbb10interface68internal9flag_taskE.local.147:
	.quad	0
	.quad	_ZTIN3tbb10interface68internal9flag_taskE
	.quad	_ZN3tbb10interface68internal9flag_taskD1Ev.local.128
	.quad	_ZN3tbb10interface68internal9flag_taskD0Ev.local.119
	.quad	_ZN3tbb10interface68internal9flag_task7executeEv.local.139
	.quad	_ZN3tbb4task13note_affinityEt
	.hidden	_ZTVN3tbb10interface68internal11signal_taskE.local.148
	.globl	_ZTVN3tbb10interface68internal11signal_taskE.local.148
	.align 32
	.type	_ZTVN3tbb10interface68internal11signal_taskE.local.148, @object
	.size	_ZTVN3tbb10interface68internal11signal_taskE.local.148, 48
_ZTVN3tbb10interface68internal11signal_taskE.local.148:
	.quad	0
	.quad	_ZTIN3tbb10interface68internal11signal_taskE
	.quad	_ZN3tbb10interface68internal11signal_taskD1Ev.local.122
	.quad	_ZN3tbb10interface68internal11signal_taskD0Ev.local.120
	.quad	_ZN3tbb10interface68internal11signal_task7executeEv.local.138
	.quad	_ZN3tbb4task13note_affinityEt
	.weak	_ZTIN3tbb10interface68internal11signal_taskE
	.section	.data.rel.ro._ZTIN3tbb10interface68internal11signal_taskE,"awG",@progbits,_ZTIN3tbb10interface68internal11signal_taskE,comdat
	.align 16
	.type	_ZTIN3tbb10interface68internal11signal_taskE, @object
	.size	_ZTIN3tbb10interface68internal11signal_taskE, 24
_ZTIN3tbb10interface68internal11signal_taskE:
	.quad	_ZTVN10__cxxabiv120__si_class_type_infoE+16
	.quad	_ZTSN3tbb10interface68internal11signal_taskE
	.quad	_ZTIN3tbb4taskE
	.weak	_ZTSN3tbb10interface68internal11signal_taskE
	.section	.rodata._ZTSN3tbb10interface68internal11signal_taskE,"aG",@progbits,_ZTSN3tbb10interface68internal11signal_taskE,comdat
	.align 32
	.type	_ZTSN3tbb10interface68internal11signal_taskE, @object
	.size	_ZTSN3tbb10interface68internal11signal_taskE, 41
_ZTSN3tbb10interface68internal11signal_taskE:
	.string	"N3tbb10interface68internal11signal_taskE"
	.weak	_ZTIN3tbb10interface68internal9flag_taskE
	.section	.data.rel.ro._ZTIN3tbb10interface68internal9flag_taskE,"awG",@progbits,_ZTIN3tbb10interface68internal9flag_taskE,comdat
	.align 16
	.type	_ZTIN3tbb10interface68internal9flag_taskE, @object
	.size	_ZTIN3tbb10interface68internal9flag_taskE, 24
_ZTIN3tbb10interface68internal9flag_taskE:
	.quad	_ZTVN10__cxxabiv120__si_class_type_infoE+16
	.quad	_ZTSN3tbb10interface68internal9flag_taskE
	.quad	_ZTIN3tbb4taskE
	.weak	_ZTSN3tbb10interface68internal9flag_taskE
	.section	.rodata._ZTSN3tbb10interface68internal9flag_taskE,"aG",@progbits,_ZTSN3tbb10interface68internal9flag_taskE,comdat
	.align 32
	.type	_ZTSN3tbb10interface68internal9flag_taskE, @object
	.size	_ZTSN3tbb10interface68internal9flag_taskE, 38
_ZTSN3tbb10interface68internal9flag_taskE:
	.string	"N3tbb10interface68internal9flag_taskE"
	.section	.rodata.cst4,"aM",@progbits,4
	.align 4
.LC1:
	.long	1132396544
	.align 4
.LC2:
	.long	1124073472
	.align 4
.LC3:
	.long	1082130432
	.align 4
.LC4:
	.long	1056964608
	.section	.rodata.cst16,"aM",@progbits,16
	.align 16
.LC5:
	.long	1082130432
	.long	1082130432
	.long	1082130432
	.long	1082130432
	.text
.Letext0:
	.file 13 "/usr/include/stdint.h"
	.file 14 "/usr/include/SFML/Graphics/Image.hpp"
	.file 15 "/usr/include/SFML/System/Resource.hpp"
	.file 16 "/usr/include/SFML/Graphics/Color.hpp"
	.file 17 "/usr/include/SFML/Config.hpp"
	.file 18 "<built-in>"
	.file 19 "/usr/lib/gcc/x86_64-redhat-linux/4.7.2/../../../../include/c++/4.7.2/bits/stl_set.h"
	.file 20 "/usr/lib/gcc/x86_64-redhat-linux/4.7.2/../../../../include/c++/4.7.2/bits/stl_tree.h"
	.file 21 "/usr/lib/gcc/x86_64-redhat-linux/4.7.2/../../../../include/c++/4.7.2/bits/allocator.h"
	.file 22 "/usr/lib/gcc/x86_64-redhat-linux/4.7.2/../../../../include/c++/4.7.2/x86_64-redhat-linux/bits/c++config.h"
	.file 23 "/usr/lib/gcc/x86_64-redhat-linux/4.7.2/../../../../include/c++/4.7.2/bits/stl_function.h"
	.file 24 "/usr/lib/gcc/x86_64-redhat-linux/4.7.2/../../../../include/c++/4.7.2/bits/stl_vector.h"
	.file 25 "/usr/lib/gcc/x86_64-redhat-linux/4.7.2/../../../../include/c++/4.7.2/bits/alloc_traits.h"
	.file 26 "/usr/lib/gcc/x86_64-redhat-linux/4.7.2/../../../../include/c++/4.7.2/ext/new_allocator.h"
	.file 27 "/usr/lib/gcc/x86_64-redhat-linux/4.7.2/../../../../include/c++/4.7.2/ext/alloc_traits.h"
	.file 28 "/home/romain/Dropbox/Perso/Mandelbrot_test/Vector-1.0/Vector/include/vectorf256e.h"
	.file 29 "/home/romain/Dropbox/Perso/Mandelbrot_test/Vector-1.0/Vector/include/vectorf128.h"
	.file 30 "/home/romain/Dropbox/Perso/Mandelbrot_test/Vector-1.0/Vector/include/vectori128.h"
	.file 31 "/opt/intel/composer_xe_2013.2.146/tbb/include/tbb/tbb_stddef.h"
	.file 32 "/usr/lib/gcc/x86_64-redhat-linux/4.7.2/../../../../include/c++/4.7.2/bits/cpp_type_traits.h"
	.file 33 "/opt/intel/composer_xe_2013.2.146/tbb/include/tbb/atomic.h"
	.file 34 "/opt/intel/composer_xe_2013.2.146/tbb/include/tbb/aligned_space.h"
	.file 35 "/opt/intel/composer_xe_2013.2.146/tbb/include/tbb/tbb_exception.h"
	.section	.note.GNU-stack,"",@progbits
